

Microchip MPLAB XC8 Assembler V2.45 build 20230818022343 
                                                                                               Tue Feb 11 12:11:58 2025

Microchip MPLAB XC8 C Compiler v2.45 (Free license) build 20230818022343 Og1 
     1                           	processor	18F25K80
     2                           	fnconf	rparam,??,?,0
     3                           	pagewidth 120
     4                           	opt	flic
     5                           	psect	idataCOMRAM,global,class=CODE,delta=1,noexec
     6                           	psect	nvCOMRAM,global,class=COMRAM,space=1,delta=1,lowdata,noexec
     7                           	psect	nvBANK0,global,class=BANK0,space=1,delta=1,lowdata,noexec
     8                           	psect	smallconst,global,reloc=2,class=SMALLCONST,delta=1,noexec
     9                           	psect	cinit,global,reloc=2,class=CODE,delta=1
    10                           	psect	bssCOMRAM,global,class=COMRAM,space=1,delta=1,lowdata,noexec
    11                           	psect	dataCOMRAM,global,class=COMRAM,space=1,delta=1,lowdata,noexec
    12                           	psect	cstackBANK0,global,class=BANK0,space=1,delta=1,lowdata,noexec
    13                           	psect	cstackCOMRAM,global,class=COMRAM,space=1,delta=1,lowdata,noexec
    14                           	psect	text0,global,reloc=2,class=CODE,delta=1
    15                           	psect	text1,global,reloc=2,class=CODE,delta=1
    16                           	psect	text2,global,reloc=2,class=CODE,delta=1,group=3
    17                           	psect	text3,global,reloc=2,class=CODE,delta=1,group=1
    18                           	psect	text4,global,reloc=2,class=CODE,delta=1,group=1
    19                           	psect	text5,global,reloc=2,class=CODE,delta=1,group=3
    20                           	psect	text6,global,reloc=2,class=CODE,delta=1
    21                           	psect	text7,global,reloc=2,class=CODE,delta=1,group=3
    22                           	psect	text8,global,reloc=2,class=CODE,delta=1,group=2
    23                           	psect	text9,global,reloc=2,class=CODE,delta=1,group=2
    24                           	psect	text10,global,reloc=2,class=CODE,delta=1
    25                           	psect	text11,global,reloc=2,class=CODE,delta=1
    26                           	psect	text12,global,reloc=2,class=CODE,delta=1,group=2
    27                           	psect	text13,global,reloc=2,class=CODE,delta=1
    28                           	psect	text14,global,reloc=2,class=CODE,delta=1
    29                           	psect	text15,global,reloc=2,class=CODE,delta=1
    30                           	psect	text16,global,reloc=2,class=CODE,delta=1
    31                           	psect	text17,global,reloc=2,class=CODE,delta=1
    32                           	psect	text18,global,reloc=2,class=CODE,delta=1
    33                           	psect	text19,global,reloc=2,class=CODE,delta=1
    34                           	psect	text20,global,reloc=2,class=CODE,delta=1
    35                           	psect	text21,global,reloc=2,class=CODE,delta=1
    36                           	psect	text22,global,reloc=2,class=CODE,delta=1
    37                           	psect	text23,global,reloc=2,class=CODE,delta=1
    38                           	psect	intcode,global,reloc=2,class=CODE,delta=1
    39                           	psect	text25,global,reloc=2,class=CODE,delta=1
    40                           	psect	text26,global,reloc=2,class=CODE,delta=1
    41                           	psect	text27,global,reloc=2,class=CODE,delta=1
    42                           	psect	intsave_regs,global,class=BIGRAM,space=1,delta=1,noexec
    43                           	psect	text28,global,reloc=2,class=CODE,delta=1
    44                           	psect	rparam,global,class=COMRAM,space=1,delta=1,noexec
    45                           	psect	temp,global,ovrld,common,class=COMRAM,space=1,delta=1
    46                           	psect	config,global,abs,ovrld,class=CONFIG,space=4,delta=1,noexec
    47   000000                     
    48                           ; Generated 21/07/2023 GMT
    49                           ; 
    50                           ; Copyright © 2023, Microchip Technology Inc. and its subsidiaries ("Microchip")
    51                           ; All rights reserved.
    52                           ; 
    53                           ; This software is developed by Microchip Technology Inc. and its subsidiaries ("Microch
      +                          ip").
    54                           ; 
    55                           ; Redistribution and use in source and binary forms, with or without modification, are
    56                           ; permitted provided that the following conditions are met:
    57                           ; 
    58                           ;     1. Redistributions of source code must retain the above copyright notice, this lis
      +                          t of
    59                           ;        conditions and the following disclaimer.
    60                           ; 
    61                           ;     2. Redistributions in binary form must reproduce the above copyright notice, this 
      +                          list
    62                           ;        of conditions and the following disclaimer in the documentation and/or other
    63                           ;        materials provided with the distribution. Publication is not required when
    64                           ;        this file is used in an embedded application.
    65                           ; 
    66                           ;     3. Microchip's name may not be used to endorse or promote products derived from th
      +                          is
    67                           ;        software without specific prior written permission.
    68                           ; 
    69                           ; THIS SOFTWARE IS PROVIDED BY MICROCHIP "AS IS" AND ANY EXPRESS OR IMPLIED WARRANTIES,
    70                           ; INCLUDING, BUT NOT LIMITED TO, THE IMPLIED WARRANTIES OF MERCHANTABILITY AND FITNESS F
      +                          OR
    71                           ; PURPOSE ARE DISCLAIMED.  IN NO EVENT SHALL MICROCHIP BE LIABLE FOR ANY DIRECT, INDIREC
      +                          T,
    72                           ; INCIDENTAL, SPECIAL, EXEMPLARY, OR CONSEQUENTIAL DAMAGES (INCLUDING BUT NOT LIMITED TO
    73                           ; PROCUREMENT OF SUBSTITUTE GOODS OR SERVICES; LOSS OF USE, DATA OR PROFITS; OR BUSINESS
    74                           ; INTERRUPTION) HOWSOEVER CAUSED AND ON ANY THEORY OF LIABILITY, WHETHER IN CONTRACT, ST
      +                          RICT
    75                           ; LIABILITY, OR TORT (INCLUDING NEGLIGENCE OR OTHERWISE) ARISING IN ANY WAY OUT OF THE U
      +                          SE OF
    76                           ; THIS SOFTWARE, EVEN IF ADVISED OF THE POSSIBILITY OF SUCH DAMAGE.
    77                           ; 
    78                           ; 
    79                           ; Code-generator required, PIC18F25K80 Definitions
    80                           ; 
    81                           ; SFR Addresses
    82   000000                     
    83 ;; Function _EUSART1_DefaultFramingErrorHandler is unused but had its address taken
    84   000000                     
    85 ;; Function _EUSART1_DefaultOverrunErrorHandler is unused but had its address taken
    86   000000                     
    87 ;; Function _EUSART1_DefaultErrorHandler is unused but had its address taken
    88   000000                     
    89                           	psect	idataCOMRAM
    90   001764                     __pidataCOMRAM:
    91                           	callstack 0
    92                           
    93                           ;initializer for _rising
    94   001764  01                 	db	1
    95   000000                     _TXREG1	set	4013
    96   000000                     _RCREG1	set	4014
    97   000000                     _SPBRG1	set	4015
    98   000000                     _TXSTA1	set	4012
    99   000000                     _RCSTA1	set	4011
   100   000000                     _T1CON	set	4045
   101   000000                     _TMR1L	set	4046
   102   000000                     _TMR1H	set	4047
   103   000000                     _REFOCON	set	3994
   104   000000                     _OSCTUNE	set	3995
   105   000000                     _PIE3bits	set	4003
   106   000000                     _PIR3bits	set	4004
   107                           
   108                           	psect	nvCOMRAM
   109   000054                     __pnvCOMRAM:
   110                           	callstack 0
   111   000054                     _EUSART1_FramingErrorHandler:
   112                           	callstack 0
   113   000054                     	ds	2
   114   000056                     _CCP2_CallBack:
   115                           	callstack 0
   116   000056                     	ds	2
   117                           
   118                           	psect	nvBANK0
   119   000065                     __pnvBANK0:
   120                           	callstack 0
   121   000065                     _EUSART1_ErrorHandler:
   122                           	callstack 0
   123   000065                     	ds	2
   124   000067                     _EUSART1_OverrunErrorHandler:
   125                           	callstack 0
   126   000067                     	ds	2
   127   000000                     _RCSTA1bits	set	4011
   128   000000                     _TXSTA1bits	set	4012
   129   000000                     _T1GCONbits	set	4010
   130   000000                     _T1CONbits	set	4045
   131   000000                     _CCP2CON	set	3920
   132   000000                     _WPUB	set	3931
   133   000000                     _ANCON1	set	3932
   134   000000                     _ANCON0	set	3933
   135   000000                     _SPBRGH1	set	3965
   136   000000                     _CCPTMRSbits	set	3993
   137   000000                     _CCPR2H	set	3922
   138   000000                     _CCPR2L	set	3921
   139   000000                     _BAUDCON1	set	4007
   140   000000                     _T1GCON	set	4010
   141   000000                     _OSCCON2	set	4050
   142   000000                     _OSCCON	set	4051
   143   000000                     _INTCON2bits	set	4081
   144   000000                     _INTCONbits	set	4082
   145   000000                     _PIR1bits	set	3998
   146   000000                     _RCONbits	set	4048
   147   000000                     _LATA	set	3977
   148   000000                     _TRISA	set	3986
   149   000000                     _LATC	set	3979
   150   000000                     _LATB	set	3978
   151   000000                     _TRISC	set	3988
   152   000000                     _TRISB	set	3987
   153                           
   154                           	psect	smallconst
   155   000F00                     __psmallconst:
   156                           	callstack 0
   157   000F00  00                 	db	0
   158   000F01                     STR_2:
   159   000F01  50                 	db	80	;'P'
   160   000F02  65                 	db	101	;'e'
   161   000F03  72                 	db	114	;'r'
   162   000F04  69                 	db	105	;'i'
   163   000F05  6F                 	db	111	;'o'
   164   000F06  64                 	db	100	;'d'
   165   000F07  65                 	db	101	;'e'
   166   000F08  20                 	db	32
   167   000F09  20                 	db	32
   168   000F0A  20                 	db	32
   169   000F0B  3A                 	db	58	;':'
   170   000F0C  00                 	db	0
   171   000F0D                     STR_3:
   172   000F0D  4D                 	db	77	;'M'
   173   000F0E  61                 	db	97	;'a'
   174   000F0F  67                 	db	103	;'g'
   175   000F10  6E                 	db	110	;'n'
   176   000F11  65                 	db	101	;'e'
   177   000F12  74                 	db	116	;'t'
   178   000F13  69                 	db	105	;'i'
   179   000F14  71                 	db	113	;'q'
   180   000F15  75                 	db	117	;'u'
   181   000F16  65                 	db	101	;'e'
   182   000F17  3A                 	db	58	;':'
   183   000F18  00                 	db	0
   184   000F19                     STR_1:
   185   000F19  54                 	db	84	;'T'
   186   000F1A  65                 	db	101	;'e'
   187   000F1B  6D                 	db	109	;'m'
   188   000F1C  70                 	db	112	;'p'
   189   000F1D  73                 	db	115	;'s'
   190   000F1E  20                 	db	32
   191   000F1F  48                 	db	72	;'H'
   192   000F20  61                 	db	97	;'a'
   193   000F21  75                 	db	117	;'u'
   194   000F22  74                 	db	116	;'t'
   195   000F23  3A                 	db	58	;':'
   196   000F24  00                 	db	0
   197   000F25                     STR_4:
   198   000F25  25                 	db	37
   199   000F26  64                 	db	100	;'d'
   200   000F27  00                 	db	0
   201   000F28  00                 	db	0	; dummy byte at the end
   202   000000                     
   203                           ; #config settings
   204                           
   205                           	psect	cinit
   206   001612                     __pcinit:
   207                           	callstack 0
   208   001612                     start_initialization:
   209                           	callstack 0
   210   001612                     __initialization:
   211                           	callstack 0
   212                           
   213                           ; Initialize objects allocated to COMRAM (1 bytes)
   214                           ; load TBLPTR registers with __pidataCOMRAM
   215   001612  0E64               	movlw	low __pidataCOMRAM
   216   001614  6EF6               	movwf	tblptrl,c
   217   001616  0E17               	movlw	high __pidataCOMRAM
   218   001618  6EF7               	movwf	tblptrh,c
   219   00161A  0E00               	movlw	low (__pidataCOMRAM shr (0+16))
   220   00161C  6EF8               	movwf	tblptru,c
   221   00161E  0009               	tblrd		*+	;fetch initializer
   222   001620  CFF5 F058          	movff	tablat,__pdataCOMRAM
   223                           
   224                           ; Clear objects allocated to COMRAM (48 bytes)
   225   001624  EE00  F001         	lfsr	0,__pbssCOMRAM
   226   001628  0E30               	movlw	48
   227   00162A                     clear_0:
   228   00162A  6AEE               	clrf	postinc0,c
   229   00162C  06E8               	decf	wreg,f,c
   230   00162E  E1FD               	bnz	clear_0
   231   001630                     end_of_initialization:
   232                           	callstack 0
   233   001630                     __end_of__initialization:
   234                           	callstack 0
   235   001630  9059               	bcf	int$flags,0,c	;clear compiler interrupt flag (level 1)
   236   001632  9259               	bcf	int$flags,1,c	;clear compiler interrupt flag (level 2)
   237   001634  0E00               	movlw	low (__Lmediumconst shr (0+16))
   238   001636  6EF8               	movwf	tblptru,c
   239   001638  0100               	movlb	0
   240   00163A  EF75  F008         	goto	_main	;jump to C main() function
   241                           
   242                           	psect	bssCOMRAM
   243   000001                     __pbssCOMRAM:
   244                           	callstack 0
   245   000001                     _dbuf:
   246                           	callstack 0
   247   000001                     	ds	32
   248   000021                     _width:
   249                           	callstack 0
   250   000021                     	ds	2
   251   000023                     _prec:
   252                           	callstack 0
   253   000023                     	ds	2
   254   000025                     Capture_CallBack@oldBas:
   255                           	callstack 0
   256   000025                     	ds	2
   257   000027                     Capture_CallBack@oldHaut:
   258                           	callstack 0
   259   000027                     	ds	2
   260   000029                     _Bas:
   261                           	callstack 0
   262   000029                     	ds	2
   263   00002B                     _Haut:
   264                           	callstack 0
   265   00002B                     	ds	2
   266   00002D                     _timer1ReloadVal:
   267                           	callstack 0
   268   00002D                     	ds	2
   269   00002F                     _flags:
   270                           	callstack 0
   271   00002F                     	ds	1
   272   000030                     _eusart1RxLastError:
   273                           	callstack 0
   274   000030                     	ds	1
   275                           
   276                           	psect	dataCOMRAM
   277   000058                     __pdataCOMRAM:
   278                           	callstack 0
   279   000058                     _rising:
   280                           	callstack 0
   281   000058                     	ds	1
   282                           
   283                           	psect	cstackBANK0
   284   000060                     __pcstackBANK0:
   285                           	callstack 0
   286   000060                     ?_printf:
   287                           	callstack 0
   288   000060                     printf@fmt:
   289                           	callstack 0
   290                           
   291                           ; 1 bytes @ 0x0
   292   000060                     	ds	3
   293   000063                     ??_main:
   294                           
   295                           ; 1 bytes @ 0x3
   296   000063                     	ds	2
   297                           
   298                           	psect	cstackCOMRAM
   299   000031                     __pcstackCOMRAM:
   300                           	callstack 0
   301   000031                     Capture_CallBack@capturesValue:
   302                           	callstack 0
   303                           
   304                           ; 2 bytes @ 0x0
   305   000031                     	ds	2
   306   000033                     CCP2_CaptureISR@module:
   307                           	callstack 0
   308                           
   309                           ; 2 bytes @ 0x2
   310   000033                     	ds	2
   311   000035                     ??_INTERRUPT_InterruptManager:
   312                           
   313                           ; 1 bytes @ 0x4
   314   000035                     	ds	2
   315   000037                     ??_TMR1_Initialize:
   316   000037                     ?___awdiv:
   317                           	callstack 0
   318   000037                     ?___awmod:
   319                           	callstack 0
   320   000037                     ?___lwdiv:
   321                           	callstack 0
   322   000037                     EUSART1_Write@txData:
   323                           	callstack 0
   324   000037                     CCP2_SetCallBack@customCallBack:
   325                           	callstack 0
   326   000037                     EUSART1_SetFramingErrorHandler@interruptHandler:
   327                           	callstack 0
   328   000037                     EUSART1_SetOverrunErrorHandler@interruptHandler:
   329                           	callstack 0
   330   000037                     EUSART1_SetErrorHandler@interruptHandler:
   331                           	callstack 0
   332   000037                     ___awdiv@dividend:
   333                           	callstack 0
   334   000037                     ___awmod@dividend:
   335                           	callstack 0
   336   000037                     ___lwdiv@dividend:
   337                           	callstack 0
   338                           
   339                           ; 2 bytes @ 0x6
   340   000037                     	ds	1
   341   000038                     putch@txData:
   342                           	callstack 0
   343   000038                     curseurPosition@position:
   344                           	callstack 0
   345                           
   346                           ; 2 bytes @ 0x7
   347   000038                     	ds	1
   348   000039                     ___awdiv@divisor:
   349                           	callstack 0
   350   000039                     ___awmod@divisor:
   351                           	callstack 0
   352   000039                     ___lwdiv@divisor:
   353                           	callstack 0
   354   000039                     fputc@c:
   355                           	callstack 0
   356                           
   357                           ; 2 bytes @ 0x8
   358   000039                     	ds	1
   359   00003A                     
   360                           ; 1 bytes @ 0x9
   361   00003A                     	ds	1
   362   00003B                     ___awdiv@counter:
   363                           	callstack 0
   364   00003B                     ___awmod@counter:
   365                           	callstack 0
   366   00003B                     ___lwdiv@quotient:
   367                           	callstack 0
   368   00003B                     fputc@fp:
   369                           	callstack 0
   370                           
   371                           ; 2 bytes @ 0xA
   372   00003B                     	ds	1
   373   00003C                     ___awdiv@sign:
   374                           	callstack 0
   375   00003C                     ___awmod@sign:
   376                           	callstack 0
   377                           
   378                           ; 1 bytes @ 0xB
   379   00003C                     	ds	1
   380   00003D                     ??_fputc:
   381   00003D                     ?_abs:
   382                           	callstack 0
   383   00003D                     ___lwdiv@counter:
   384                           	callstack 0
   385   00003D                     ___awdiv@quotient:
   386                           	callstack 0
   387   00003D                     abs@a:
   388                           	callstack 0
   389                           
   390                           ; 2 bytes @ 0xC
   391   00003D                     	ds	2
   392   00003F                     ??_abs:
   393                           
   394                           ; 1 bytes @ 0xE
   395   00003F                     	ds	3
   396   000042                     vfpfcnvrt@fp:
   397                           	callstack 0
   398                           
   399                           ; 2 bytes @ 0x11
   400   000042                     	ds	2
   401   000044                     vfpfcnvrt@fmt:
   402                           	callstack 0
   403                           
   404                           ; 1 bytes @ 0x13
   405   000044                     	ds	1
   406   000045                     vfpfcnvrt@ap:
   407                           	callstack 0
   408                           
   409                           ; 1 bytes @ 0x14
   410   000045                     	ds	1
   411   000046                     ??_vfpfcnvrt:
   412                           
   413                           ; 1 bytes @ 0x15
   414   000046                     	ds	1
   415   000047                     vfpfcnvrt@done:
   416                           	callstack 0
   417                           
   418                           ; 1 bytes @ 0x16
   419   000047                     	ds	1
   420   000048                     vfpfcnvrt@cp:
   421                           	callstack 0
   422                           
   423                           ; 1 bytes @ 0x17
   424   000048                     	ds	1
   425   000049                     vfpfcnvrt@convarg:
   426                           	callstack 0
   427                           
   428                           ; 4 bytes @ 0x18
   429   000049                     	ds	4
   430   00004D                     vfpfcnvrt@c:
   431                           	callstack 0
   432                           
   433                           ; 1 bytes @ 0x1C
   434   00004D                     	ds	1
   435   00004E                     ?_vfprintf:
   436                           	callstack 0
   437   00004E                     vfprintf@fp:
   438                           	callstack 0
   439                           
   440                           ; 2 bytes @ 0x1D
   441   00004E                     	ds	2
   442   000050                     vfprintf@fmt:
   443                           	callstack 0
   444                           
   445                           ; 1 bytes @ 0x1F
   446   000050                     	ds	1
   447   000051                     vfprintf@ap:
   448                           	callstack 0
   449                           
   450                           ; 1 bytes @ 0x20
   451   000051                     	ds	1
   452   000052                     vfprintf@cfmt:
   453                           	callstack 0
   454                           
   455                           ; 1 bytes @ 0x21
   456   000052                     	ds	1
   457   000053                     printf@ap:
   458                           	callstack 0
   459                           
   460                           ; 1 bytes @ 0x22
   461   000053                     	ds	1
   462                           
   463 ;;
   464 ;;Main: autosize = 0, tempsize = 2, incstack = 0, save=0
   465 ;;
   466 ;; *************** function _main *****************
   467 ;; Defined at:
   468 ;;		line 58 in file "main.c"
   469 ;; Parameters:    Size  Location     Type
   470 ;;		None
   471 ;; Auto vars:     Size  Location     Type
   472 ;;		None
   473 ;; Return value:  Size  Location     Type
   474 ;;                  1    wreg      void 
   475 ;; Registers used:
   476 ;;		wreg, fsr1l, fsr1h, fsr2l, fsr2h, status,2, status,0, tblptrl, tblptrh, tblptru, cstack
   477 ;; Tracked objects:
   478 ;;		On entry : 0/0
   479 ;;		On exit  : 0/0
   480 ;;		Unchanged: 0/0
   481 ;; Data sizes:     COMRAM   BANK0   BANK1   BANK2   BANK3   BANK4   BANK5   BANK6   BANK7   BANK8   BANK9  BANK10  BANK1
      +1  BANK12  BANK13  BANK14
   482 ;;      Params:         0       0       0       0       0       0       0       0       0       0       0       0       
      +0       0       0       0
   483 ;;      Locals:         0       0       0       0       0       0       0       0       0       0       0       0       
      +0       0       0       0
   484 ;;      Temps:          0       2       0       0       0       0       0       0       0       0       0       0       
      +0       0       0       0
   485 ;;      Totals:         0       2       0       0       0       0       0       0       0       0       0       0       
      +0       0       0       0
   486 ;;Total ram usage:        2 bytes
   487 ;; Hardware stack levels required when called: 9
   488 ;; This function calls:
   489 ;;		_CCP2_SetCallBack
   490 ;;		_SYSTEM_Initialize
   491 ;;		___lwdiv
   492 ;;		_curseurPosition
   493 ;;		_printf
   494 ;;		_videEcran
   495 ;; This function is called by:
   496 ;;		Startup code after reset
   497 ;; This function uses a non-reentrant model
   498 ;;
   499                           
   500                           	psect	text0
   501   0010EA                     __ptext0:
   502                           	callstack 0
   503   0010EA                     _main:
   504                           	callstack 22
   505   0010EA                     
   506                           ;main.c: 61:     SYSTEM_Initialize();
   507   0010EA  EC64  F00B         	call	_SYSTEM_Initialize	;wreg free
   508   0010EE                     
   509                           ;main.c: 68:     (INTCONbits.GIE = 1);
   510   0010EE  8EF2               	bsf	242,7,c	;volatile
   511   0010F0                     
   512                           ;main.c: 74:     (INTCONbits.PEIE = 1);
   513   0010F0  8CF2               	bsf	242,6,c	;volatile
   514                           
   515                           ;main.c: 79:     CCP2_SetCallBack(Capture_CallBack);
   516   0010F2  0EE6               	movlw	low _Capture_CallBack
   517   0010F4  6E37               	movwf	CCP2_SetCallBack@customCallBack^0,c
   518   0010F6  0E14               	movlw	high _Capture_CallBack
   519   0010F8  6E38               	movwf	(CCP2_SetCallBack@customCallBack+1)^0,c
   520   0010FA  ECAA  F00B         	call	_CCP2_SetCallBack	;wreg free
   521   0010FE                     
   522                           ;main.c: 80:     videEcran();
   523   0010FE  EC8F  F00B         	call	_videEcran	;wreg free
   524   001102                     
   525                           ;main.c: 81:     curseurPosition(0x00);
   526   001102  0E00               	movlw	0
   527   001104  6E39               	movwf	(curseurPosition@position+1)^0,c
   528   001106  0E00               	movlw	0
   529   001108  6E38               	movwf	curseurPosition@position^0,c
   530   00110A  EC7C  F00B         	call	_curseurPosition	;wreg free
   531   00110E                     
   532                           ;main.c: 82:     printf("Temps Haut:");
   533   00110E  0E19               	movlw	low STR_1
   534   001110  0100               	movlb	0	; () banked
   535   001112  6F60               	movwf	printf@fmt& (0+255),b
   536   001114  EC57  F00B         	call	_printf	;wreg free
   537   001118                     
   538                           ;main.c: 83:     curseurPosition(0x40);
   539   001118  0E00               	movlw	0
   540   00111A  6E39               	movwf	(curseurPosition@position+1)^0,c
   541   00111C  0E40               	movlw	64
   542   00111E  6E38               	movwf	curseurPosition@position^0,c
   543   001120  EC7C  F00B         	call	_curseurPosition	;wreg free
   544   001124                     
   545                           ;main.c: 84:     printf("Periode   :");
   546   001124  0E01               	movlw	low STR_2
   547   001126  0100               	movlb	0	; () banked
   548   001128  6F60               	movwf	printf@fmt& (0+255),b
   549   00112A  EC57  F00B         	call	_printf	;wreg free
   550   00112E                     
   551                           ;main.c: 85:     curseurPosition(0x14);
   552   00112E  0E00               	movlw	0
   553   001130  6E39               	movwf	(curseurPosition@position+1)^0,c
   554   001132  0E14               	movlw	20
   555   001134  6E38               	movwf	curseurPosition@position^0,c
   556   001136  EC7C  F00B         	call	_curseurPosition	;wreg free
   557   00113A                     
   558                           ;main.c: 86:     printf("Magnetique:");
   559   00113A  0E0D               	movlw	low STR_3
   560   00113C  0100               	movlb	0	; () banked
   561   00113E  6F60               	movwf	printf@fmt& (0+255),b
   562   001140  EC57  F00B         	call	_printf	;wreg free
   563   001144                     l1763:
   564                           
   565                           ;main.c: 88:     {;main.c: 89:         curseurPosition(0x0C);
   566   001144  0E00               	movlw	0
   567   001146  6E39               	movwf	(curseurPosition@position+1)^0,c
   568   001148  0E0C               	movlw	12
   569   00114A  6E38               	movwf	curseurPosition@position^0,c
   570   00114C  EC7C  F00B         	call	_curseurPosition	;wreg free
   571   001150                     
   572                           ;main.c: 90:         printf("%d",Haut/5);
   573   001150  0E25               	movlw	low STR_4
   574   001152  0100               	movlb	0	; () banked
   575   001154  6F60               	movwf	printf@fmt& (0+255),b
   576   001156  C02B  F037         	movff	_Haut,___lwdiv@dividend
   577   00115A  C02C  F038         	movff	_Haut+1,___lwdiv@dividend+1
   578   00115E  0E00               	movlw	0
   579   001160  6E3A               	movwf	(___lwdiv@divisor+1)^0,c
   580   001162  0E05               	movlw	5
   581   001164  6E39               	movwf	___lwdiv@divisor^0,c
   582   001166  EC39  F00A         	call	___lwdiv	;wreg free
   583   00116A  C037  F061         	movff	?___lwdiv,?_printf+1
   584   00116E  C038  F062         	movff	?___lwdiv+1,?_printf+2
   585   001172  EC57  F00B         	call	_printf	;wreg free
   586   001176                     
   587                           ;main.c: 91:         _delay((unsigned long)((1000)*(20000000/4000.0)));
   588   001176  0E1A               	movlw	26
   589   001178  0100               	movlb	0	; () banked
   590   00117A  6F64               	movwf	(??_main+1)& (0+255),b
   591   00117C  0E5E               	movlw	94
   592   00117E  6F63               	movwf	??_main& (0+255),b
   593   001180  0E6E               	movlw	110
   594   001182                     u787:
   595   001182  2EE8               	decfsz	wreg,f,c
   596   001184  D7FE               	bra	u787
   597   001186  2F63               	decfsz	??_main& (0+255),f,b
   598   001188  D7FC               	bra	u787
   599   00118A  2F64               	decfsz	(??_main+1)& (0+255),f,b
   600   00118C  D7FA               	bra	u787
   601   00118E  0000               	nop	
   602   001190                     
   603                           ;main.c: 92:         curseurPosition(0x4C);
   604   001190  0E00               	movlw	0
   605   001192  6E39               	movwf	(curseurPosition@position+1)^0,c
   606   001194  0E4C               	movlw	76
   607   001196  6E38               	movwf	curseurPosition@position^0,c
   608   001198  EC7C  F00B         	call	_curseurPosition	;wreg free
   609   00119C                     
   610                           ;main.c: 93:         printf("%d",((Haut+Bas)/5));
   611   00119C  0E25               	movlw	low STR_4
   612   00119E  0100               	movlb	0	; () banked
   613   0011A0  6F60               	movwf	printf@fmt& (0+255),b
   614   0011A2  5029               	movf	_Bas^0,w,c
   615   0011A4  242B               	addwf	_Haut^0,w,c
   616   0011A6  6E37               	movwf	___lwdiv@dividend^0,c
   617   0011A8  502A               	movf	(_Bas+1)^0,w,c
   618   0011AA  202C               	addwfc	(_Haut+1)^0,w,c
   619   0011AC  6E38               	movwf	(___lwdiv@dividend+1)^0,c
   620   0011AE  0E00               	movlw	0
   621   0011B0  6E3A               	movwf	(___lwdiv@divisor+1)^0,c
   622   0011B2  0E05               	movlw	5
   623   0011B4  6E39               	movwf	___lwdiv@divisor^0,c
   624   0011B6  EC39  F00A         	call	___lwdiv	;wreg free
   625   0011BA  C037  F061         	movff	?___lwdiv,?_printf+1
   626   0011BE  C038  F062         	movff	?___lwdiv+1,?_printf+2
   627   0011C2  EC57  F00B         	call	_printf	;wreg free
   628   0011C6                     
   629                           ;main.c: 94:         _delay((unsigned long)((1000)*(20000000/4000.0)));
   630   0011C6  0E1A               	movlw	26
   631   0011C8  0100               	movlb	0	; () banked
   632   0011CA  6F64               	movwf	(??_main+1)& (0+255),b
   633   0011CC  0E5E               	movlw	94
   634   0011CE  6F63               	movwf	??_main& (0+255),b
   635   0011D0  0E6E               	movlw	110
   636   0011D2                     u797:
   637   0011D2  2EE8               	decfsz	wreg,f,c
   638   0011D4  D7FE               	bra	u797
   639   0011D6  2F63               	decfsz	??_main& (0+255),f,b
   640   0011D8  D7FC               	bra	u797
   641   0011DA  2F64               	decfsz	(??_main+1)& (0+255),f,b
   642   0011DC  D7FA               	bra	u797
   643   0011DE  0000               	nop	
   644   0011E0                     
   645                           ;main.c: 95:         curseurPosition(0x20);
   646   0011E0  0E00               	movlw	0
   647   0011E2  6E39               	movwf	(curseurPosition@position+1)^0,c
   648   0011E4  0E20               	movlw	32
   649   0011E6  6E38               	movwf	curseurPosition@position^0,c
   650   0011E8  EC7C  F00B         	call	_curseurPosition	;wreg free
   651   0011EC                     
   652                           ;main.c: 96:         printf("%d",Bas/5);
   653   0011EC  0E25               	movlw	low STR_4
   654   0011EE  0100               	movlb	0	; () banked
   655   0011F0  6F60               	movwf	printf@fmt& (0+255),b
   656   0011F2  C029  F037         	movff	_Bas,___lwdiv@dividend
   657   0011F6  C02A  F038         	movff	_Bas+1,___lwdiv@dividend+1
   658   0011FA  0E00               	movlw	0
   659   0011FC  6E3A               	movwf	(___lwdiv@divisor+1)^0,c
   660   0011FE  0E05               	movlw	5
   661   001200  6E39               	movwf	___lwdiv@divisor^0,c
   662   001202  EC39  F00A         	call	___lwdiv	;wreg free
   663   001206  C037  F061         	movff	?___lwdiv,?_printf+1
   664   00120A  C038  F062         	movff	?___lwdiv+1,?_printf+2
   665   00120E  EC57  F00B         	call	_printf	;wreg free
   666   001212                     
   667                           ;main.c: 97:         _delay((unsigned long)((1000)*(20000000/4000.0)));
   668   001212  0E1A               	movlw	26
   669   001214  0100               	movlb	0	; () banked
   670   001216  6F64               	movwf	(??_main+1)& (0+255),b
   671   001218  0E5E               	movlw	94
   672   00121A  6F63               	movwf	??_main& (0+255),b
   673   00121C  0E6E               	movlw	110
   674   00121E                     u807:
   675   00121E  2EE8               	decfsz	wreg,f,c
   676   001220  D7FE               	bra	u807
   677   001222  2F63               	decfsz	??_main& (0+255),f,b
   678   001224  D7FC               	bra	u807
   679   001226  2F64               	decfsz	(??_main+1)& (0+255),f,b
   680   001228  D7FA               	bra	u807
   681   00122A  0000               	nop	
   682   00122C  EFA2  F008         	goto	l1763
   683   001230  EF26  F000         	goto	start
   684   001234                     __end_of_main:
   685                           	callstack 0
   686                           
   687 ;; *************** function _videEcran *****************
   688 ;; Defined at:
   689 ;;		line 21 in file "ecran.c"
   690 ;; Parameters:    Size  Location     Type
   691 ;;		None
   692 ;; Auto vars:     Size  Location     Type
   693 ;;		None
   694 ;; Return value:  Size  Location     Type
   695 ;;                  1    wreg      void 
   696 ;; Registers used:
   697 ;;		wreg, cstack
   698 ;; Tracked objects:
   699 ;;		On entry : 0/0
   700 ;;		On exit  : 0/0
   701 ;;		Unchanged: 0/0
   702 ;; Data sizes:     COMRAM   BANK0   BANK1   BANK2   BANK3   BANK4   BANK5   BANK6   BANK7   BANK8   BANK9  BANK10  BANK1
      +1  BANK12  BANK13  BANK14
   703 ;;      Params:         0       0       0       0       0       0       0       0       0       0       0       0       
      +0       0       0       0
   704 ;;      Locals:         0       0       0       0       0       0       0       0       0       0       0       0       
      +0       0       0       0
   705 ;;      Temps:          0       0       0       0       0       0       0       0       0       0       0       0       
      +0       0       0       0
   706 ;;      Totals:         0       0       0       0       0       0       0       0       0       0       0       0       
      +0       0       0       0
   707 ;;Total ram usage:        0 bytes
   708 ;; Hardware stack levels used: 1
   709 ;; Hardware stack levels required when called: 4
   710 ;; This function calls:
   711 ;;		_EUSART1_Write
   712 ;; This function is called by:
   713 ;;		_main
   714 ;; This function uses a non-reentrant model
   715 ;;
   716                           
   717                           	psect	text1
   718   00171E                     __ptext1:
   719                           	callstack 0
   720   00171E                     _videEcran:
   721                           	callstack 26
   722   00171E                     
   723                           ;ecran.c: 23:     EUSART1_Write(0xFE);
   724   00171E  0EFE               	movlw	254
   725   001720  EC71  F00B         	call	_EUSART1_Write
   726                           
   727                           ;ecran.c: 24:     EUSART1_Write(0x51);
   728   001724  0E51               	movlw	81
   729   001726  EC71  F00B         	call	_EUSART1_Write
   730   00172A  0012               	return		;funcret
   731   00172C                     __end_of_videEcran:
   732                           	callstack 0
   733                           
   734 ;; *************** function _printf *****************
   735 ;; Defined at:
   736 ;;		line 5 in file "C:\Program Files\Microchip\xc8\v2.45\pic\sources\c99\common\printf.c"
   737 ;; Parameters:    Size  Location     Type
   738 ;;  fmt             1    0[BANK0 ] PTR const unsigned char 
   739 ;;		 -> STR_6(3), STR_5(3), STR_4(3), STR_3(12), 
   740 ;;		 -> STR_2(12), STR_1(12), 
   741 ;; Auto vars:     Size  Location     Type
   742 ;;  ret             2    0        int 
   743 ;;  ap              1   34[COMRAM] PTR void [1]
   744 ;;		 -> ?_printf(2), 
   745 ;; Return value:  Size  Location     Type
   746 ;;                  2    0[BANK0 ] int 
   747 ;; Registers used:
   748 ;;		wreg, fsr1l, fsr1h, fsr2l, fsr2h, status,2, status,0, tblptrl, tblptrh, tblptru, cstack
   749 ;; Tracked objects:
   750 ;;		On entry : 0/0
   751 ;;		On exit  : 0/0
   752 ;;		Unchanged: 0/0
   753 ;; Data sizes:     COMRAM   BANK0   BANK1   BANK2   BANK3   BANK4   BANK5   BANK6   BANK7   BANK8   BANK9  BANK10  BANK1
      +1  BANK12  BANK13  BANK14
   754 ;;      Params:         0       3       0       0       0       0       0       0       0       0       0       0       
      +0       0       0       0
   755 ;;      Locals:         1       0       0       0       0       0       0       0       0       0       0       0       
      +0       0       0       0
   756 ;;      Temps:          0       0       0       0       0       0       0       0       0       0       0       0       
      +0       0       0       0
   757 ;;      Totals:         1       3       0       0       0       0       0       0       0       0       0       0       
      +0       0       0       0
   758 ;;Total ram usage:        4 bytes
   759 ;; Hardware stack levels used: 1
   760 ;; Hardware stack levels required when called: 8
   761 ;; This function calls:
   762 ;;		_vfprintf
   763 ;; This function is called by:
   764 ;;		_main
   765 ;; This function uses a non-reentrant model
   766 ;;
   767                           
   768                           	psect	text2
   769   0016AE                     __ptext2:
   770                           	callstack 0
   771   0016AE                     _printf:
   772                           	callstack 22
   773   0016AE  0E61               	movlw	low (?_printf+1)
   774   0016B0  6E53               	movwf	printf@ap^0,c
   775   0016B2  0E00               	movlw	0
   776   0016B4  6E4E               	movwf	vfprintf@fp^0,c
   777   0016B6  0E00               	movlw	0
   778   0016B8  6E4F               	movwf	(vfprintf@fp+1)^0,c
   779   0016BA  C060  F050         	movff	printf@fmt,vfprintf@fmt
   780   0016BE  0E53               	movlw	low printf@ap
   781   0016C0  6E51               	movwf	vfprintf@ap^0,c
   782   0016C2  EC98  F00A         	call	_vfprintf	;wreg free
   783   0016C6  0012               	return		;funcret
   784   0016C8                     __end_of_printf:
   785                           	callstack 0
   786                           
   787 ;; *************** function _vfprintf *****************
   788 ;; Defined at:
   789 ;;		line 1817 in file "C:\Program Files\Microchip\xc8\v2.45\pic\sources\c99\common\doprnt.c"
   790 ;; Parameters:    Size  Location     Type
   791 ;;  fp              2   29[COMRAM] PTR struct _IO_FILE
   792 ;;		 -> NULL(0), 
   793 ;;  fmt             1   31[COMRAM] PTR const unsigned char 
   794 ;;		 -> STR_6(3), STR_5(3), STR_4(3), STR_3(12), 
   795 ;;		 -> STR_2(12), STR_1(12), 
   796 ;;  ap              1   32[COMRAM] PTR PTR void 
   797 ;;		 -> printf@ap(1), 
   798 ;; Auto vars:     Size  Location     Type
   799 ;;  cfmt            1   33[COMRAM] PTR unsigned char 
   800 ;;		 -> STR_6(3), STR_5(3), STR_4(3), STR_3(12), 
   801 ;;		 -> STR_2(12), STR_1(12), 
   802 ;; Return value:  Size  Location     Type
   803 ;;                  2   29[COMRAM] int 
   804 ;; Registers used:
   805 ;;		wreg, fsr1l, fsr1h, fsr2l, fsr2h, status,2, status,0, tblptrl, tblptrh, tblptru, cstack
   806 ;; Tracked objects:
   807 ;;		On entry : 0/0
   808 ;;		On exit  : 0/0
   809 ;;		Unchanged: 0/0
   810 ;; Data sizes:     COMRAM   BANK0   BANK1   BANK2   BANK3   BANK4   BANK5   BANK6   BANK7   BANK8   BANK9  BANK10  BANK1
      +1  BANK12  BANK13  BANK14
   811 ;;      Params:         4       0       0       0       0       0       0       0       0       0       0       0       
      +0       0       0       0
   812 ;;      Locals:         1       0       0       0       0       0       0       0       0       0       0       0       
      +0       0       0       0
   813 ;;      Temps:          0       0       0       0       0       0       0       0       0       0       0       0       
      +0       0       0       0
   814 ;;      Totals:         5       0       0       0       0       0       0       0       0       0       0       0       
      +0       0       0       0
   815 ;;Total ram usage:        5 bytes
   816 ;; Hardware stack levels used: 1
   817 ;; Hardware stack levels required when called: 7
   818 ;; This function calls:
   819 ;;		_vfpfcnvrt
   820 ;; This function is called by:
   821 ;;		_printf
   822 ;; This function uses a non-reentrant model
   823 ;;
   824                           
   825                           	psect	text3
   826   001530                     __ptext3:
   827                           	callstack 0
   828   001530                     _vfprintf:
   829                           	callstack 22
   830   001530                     
   831                           ;C:\Program Files\Microchip\xc8\v2.45\pic\sources\c99\common\doprnt.c: 1817: int vfprint
      +                          f(FILE *fp, const char *fmt, va_list ap);C:\Program Files\Microchip\xc8\v2.45\pic\source
      +                          s\c99\common\doprnt.c: 1818: {;C:\Program Files\Microchip\xc8\v2.45\pic\sources\c99\comm
      +                          on\doprnt.c: 1820:     char *cfmt;;C:\Program Files\Microchip\xc8\v2.45\pic\sources\c99\
      +                          common\doprnt.c: 1822:     cfmt = (char *)fmt;
   832   001530  C050  F052         	movff	vfprintf@fmt,vfprintf@cfmt
   833                           
   834                           ;C:\Program Files\Microchip\xc8\v2.45\pic\sources\c99\common\doprnt.c: 1826:     while (
      +                          *cfmt) {
   835   001534  EFA6  F00A         	goto	l1637
   836   001538                     l1635:
   837                           
   838                           ;C:\Program Files\Microchip\xc8\v2.45\pic\sources\c99\common\doprnt.c: 1830:    vfpfcnvr
      +                          t(fp, &cfmt, ap);
   839   001538  C04E  F042         	movff	vfprintf@fp,vfpfcnvrt@fp
   840   00153C  C04F  F043         	movff	vfprintf@fp+1,vfpfcnvrt@fp+1
   841   001540  0E52               	movlw	low vfprintf@cfmt
   842   001542  6E44               	movwf	vfpfcnvrt@fmt^0,c
   843   001544  C051  F045         	movff	vfprintf@ap,vfpfcnvrt@ap
   844   001548  EC95  F007         	call	_vfpfcnvrt	;wreg free
   845   00154C                     l1637:
   846                           
   847                           ;C:\Program Files\Microchip\xc8\v2.45\pic\sources\c99\common\doprnt.c: 1826:     while (
      +                          *cfmt) {
   848   00154C  C052  FFF6         	movff	vfprintf@cfmt,tblptrl
   849   001550                     	if	1	;There is more than 1 active tblptr byte
   850   001550  0E0F               	movlw	high __smallconst
   851   001552  6EF7               	movwf	tblptrh,c
   852   001554                     	endif
   853   001554                     	if	0	;tblptru may be non-zero
   854   001554                     	endif
   855   001554                     	if	0	;tblptru may be non-zero
   856   001554                     	endif
   857   001554  0008               	tblrd		*
   858   001556  50F5               	movf	tablat,w,c
   859   001558  0900               	iorlw	0
   860   00155A  A4D8               	btfss	status,2,c
   861   00155C  EFB2  F00A         	goto	u701
   862   001560  EFB4  F00A         	goto	u700
   863   001564                     u701:
   864   001564  EF9C  F00A         	goto	l1635
   865   001568                     u700:
   866   001568                     
   867                           ;C:\Program Files\Microchip\xc8\v2.45\pic\sources\c99\common\doprnt.c: 1835:  return 0;
   868   001568  0E00               	movlw	0
   869   00156A  6E4F               	movwf	(?_vfprintf+1)^0,c
   870   00156C  0E00               	movlw	0
   871   00156E  6E4E               	movwf	?_vfprintf^0,c
   872   001570  0012               	return		;funcret
   873   001572                     __end_of_vfprintf:
   874                           	callstack 0
   875                           
   876 ;; *************** function _vfpfcnvrt *****************
   877 ;; Defined at:
   878 ;;		line 1177 in file "C:\Program Files\Microchip\xc8\v2.45\pic\sources\c99\common\doprnt.c"
   879 ;; Parameters:    Size  Location     Type
   880 ;;  fp              2   17[COMRAM] PTR struct _IO_FILE
   881 ;;		 -> NULL(0), 
   882 ;;  fmt             1   19[COMRAM] PTR PTR unsigned char 
   883 ;;		 -> vfprintf@cfmt(1), 
   884 ;;  ap              1   20[COMRAM] PTR PTR void 
   885 ;;		 -> printf@ap(1), 
   886 ;; Auto vars:     Size  Location     Type
   887 ;;  convarg         4   24[COMRAM] struct .
   888 ;;  c               1   28[COMRAM] unsigned char 
   889 ;;  cp              1   23[COMRAM] PTR unsigned char 
   890 ;;		 -> STR_6(3), STR_5(3), STR_4(3), STR_3(12), 
   891 ;;		 -> STR_2(12), STR_1(12), 
   892 ;;  done            1   22[COMRAM] _Bool 
   893 ;; Return value:  Size  Location     Type
   894 ;;                  1    wreg      void 
   895 ;; Registers used:
   896 ;;		wreg, fsr1l, fsr1h, fsr2l, fsr2h, status,2, status,0, tblptrl, tblptrh, tblptru, cstack
   897 ;; Tracked objects:
   898 ;;		On entry : 0/0
   899 ;;		On exit  : 0/0
   900 ;;		Unchanged: 0/0
   901 ;; Data sizes:     COMRAM   BANK0   BANK1   BANK2   BANK3   BANK4   BANK5   BANK6   BANK7   BANK8   BANK9  BANK10  BANK1
      +1  BANK12  BANK13  BANK14
   902 ;;      Params:         4       0       0       0       0       0       0       0       0       0       0       0       
      +0       0       0       0
   903 ;;      Locals:         7       0       0       0       0       0       0       0       0       0       0       0       
      +0       0       0       0
   904 ;;      Temps:          1       0       0       0       0       0       0       0       0       0       0       0       
      +0       0       0       0
   905 ;;      Totals:        12       0       0       0       0       0       0       0       0       0       0       0       
      +0       0       0       0
   906 ;;Total ram usage:       12 bytes
   907 ;; Hardware stack levels used: 1
   908 ;; Hardware stack levels required when called: 6
   909 ;; This function calls:
   910 ;;		___awdiv
   911 ;;		___awmod
   912 ;;		_abs
   913 ;;		_fputc
   914 ;; This function is called by:
   915 ;;		_vfprintf
   916 ;; This function uses a non-reentrant model
   917 ;;
   918                           
   919                           	psect	text4
   920   000F2A                     __ptext4:
   921                           	callstack 0
   922   000F2A                     _vfpfcnvrt:
   923                           	callstack 22
   924   000F2A                     
   925                           ;C:\Program Files\Microchip\xc8\v2.45\pic\sources\c99\common\doprnt.c: 1177: vfpfcnvrt(F
      +                          ILE *fp, char *fmt[], va_list ap);C:\Program Files\Microchip\xc8\v2.45\pic\sources\c99\c
      +                          ommon\doprnt.c: 1178: {;C:\Program Files\Microchip\xc8\v2.45\pic\sources\c99\common\dopr
      +                          nt.c: 1179:     char c, *cp;;C:\Program Files\Microchip\xc8\v2.45\pic\sources\c99\common
      +                          \doprnt.c: 1180:     _Bool done;;C:\Program Files\Microchip\xc8\v2.45\pic\sources\c99\co
      +                          mmon\doprnt.c: 1188:  } convarg;;C:\Program Files\Microchip\xc8\v2.45\pic\sources\c99\co
      +                          mmon\doprnt.c: 1201:     if ((*fmt)[0] == '%') {
   926   000F2A  5044               	movf	vfpfcnvrt@fmt^0,w,c
   927   000F2C  6ED9               	movwf	fsr2l,c
   928   000F2E  6ADA               	clrf	fsr2h,c
   929   000F30  CFDF FFF6          	movff	indf2,tblptrl
   930   000F34                     	if	1	;There is more than 1 active tblptr byte
   931   000F34  0E0F               	movlw	high __smallconst
   932   000F36  6EF7               	movwf	tblptrh,c
   933   000F38                     	endif
   934   000F38                     	if	0	;tblptru may be non-zero
   935   000F38                     	endif
   936   000F38                     	if	0	;tblptru may be non-zero
   937   000F38                     	endif
   938   000F38  0008               	tblrd		*
   939   000F3A  50F5               	movf	tablat,w,c
   940   000F3C  0A25               	xorlw	37
   941   000F3E  A4D8               	btfss	status,2,c
   942   000F40  EFA4  F007         	goto	u601
   943   000F44  EFA6  F007         	goto	u600
   944   000F48                     u601:
   945   000F48  EF61  F008         	goto	l1607
   946   000F4C                     u600:
   947   000F4C                     
   948                           ;C:\Program Files\Microchip\xc8\v2.45\pic\sources\c99\common\doprnt.c: 1202:         ++*
      +                          fmt;
   949   000F4C  5044               	movf	vfpfcnvrt@fmt^0,w,c
   950   000F4E  6ED9               	movwf	fsr2l,c
   951   000F50  6ADA               	clrf	fsr2h,c
   952   000F52  2ADF               	incf	indf2,f,c
   953   000F54                     
   954                           ;C:\Program Files\Microchip\xc8\v2.45\pic\sources\c99\common\doprnt.c: 1204:         fla
      +                          gs = width = 0;
   955   000F54  0E00               	movlw	0
   956   000F56  6E22               	movwf	(_width+1)^0,c
   957   000F58  0E00               	movlw	0
   958   000F5A  6E21               	movwf	_width^0,c
   959   000F5C  C021  F02F         	movff	_width,_flags
   960   000F60                     
   961                           ;C:\Program Files\Microchip\xc8\v2.45\pic\sources\c99\common\doprnt.c: 1205:         pre
      +                          c = -1;
   962   000F60  6823               	setf	_prec^0,c
   963   000F62  6824               	setf	(_prec+1)^0,c
   964   000F64                     
   965                           ;C:\Program Files\Microchip\xc8\v2.45\pic\sources\c99\common\doprnt.c: 1291:   cp = *fmt
      +                          ;
   966   000F64  5044               	movf	vfpfcnvrt@fmt^0,w,c
   967   000F66  6ED9               	movwf	fsr2l,c
   968   000F68  6ADA               	clrf	fsr2h,c
   969   000F6A  50DF               	movf	indf2,w,c
   970   000F6C  6E48               	movwf	vfpfcnvrt@cp^0,c
   971   000F6E                     
   972                           ;C:\Program Files\Microchip\xc8\v2.45\pic\sources\c99\common\doprnt.c: 1361:   if (*cp =
      +                          = 'd' || *cp == 'i') {
   973   000F6E  C048  FFF6         	movff	vfpfcnvrt@cp,tblptrl
   974   000F72                     	if	1	;There is more than 1 active tblptr byte
   975   000F72  0E0F               	movlw	high __smallconst
   976   000F74  6EF7               	movwf	tblptrh,c
   977   000F76                     	endif
   978   000F76                     	if	0	;tblptru may be non-zero
   979   000F76                     	endif
   980   000F76                     	if	0	;tblptru may be non-zero
   981   000F76                     	endif
   982   000F76  0008               	tblrd		*
   983   000F78  50F5               	movf	tablat,w,c
   984   000F7A  0A64               	xorlw	100
   985   000F7C  B4D8               	btfsc	status,2,c
   986   000F7E  EFC3  F007         	goto	u611
   987   000F82  EFC5  F007         	goto	u610
   988   000F86                     u611:
   989   000F86  EFD3  F007         	goto	l1577
   990   000F8A                     u610:
   991   000F8A  C048  FFF6         	movff	vfpfcnvrt@cp,tblptrl
   992   000F8E                     	if	1	;There is more than 1 active tblptr byte
   993   000F8E  0E0F               	movlw	high __smallconst
   994   000F90  6EF7               	movwf	tblptrh,c
   995   000F92                     	endif
   996   000F92                     	if	0	;tblptru may be non-zero
   997   000F92                     	endif
   998   000F92                     	if	0	;tblptru may be non-zero
   999   000F92                     	endif
  1000   000F92  0008               	tblrd		*
  1001   000F94  50F5               	movf	tablat,w,c
  1002   000F96  0A69               	xorlw	105
  1003   000F98  A4D8               	btfss	status,2,c
  1004   000F9A  EFD1  F007         	goto	u621
  1005   000F9E  EFD3  F007         	goto	u620
  1006   000FA2                     u621:
  1007   000FA2  EF5B  F008         	goto	l1603
  1008   000FA6                     u620:
  1009   000FA6                     l1577:
  1010                           
  1011                           ;C:\Program Files\Microchip\xc8\v2.45\pic\sources\c99\common\doprnt.c: 1404:    convarg.
      +                          sint = (vfpf_sint_t)(int)(*(int *)__va_arg(*(int **)ap, (int)0));
  1012   000FA6  5045               	movf	vfpfcnvrt@ap^0,w,c
  1013   000FA8  6ED9               	movwf	fsr2l,c
  1014   000FAA  6ADA               	clrf	fsr2h,c
  1015   000FAC  0E02               	movlw	2
  1016   000FAE  26DF               	addwf	indf2,f,c
  1017   000FB0  5CDF               	subwf	indf2,w,c
  1018   000FB2  6ED9               	movwf	fsr2l,c
  1019   000FB4  6ADA               	clrf	fsr2h,c
  1020   000FB6  CFDE F049          	movff	postinc2,vfpfcnvrt@convarg
  1021   000FBA  CFDE F04A          	movff	postinc2,vfpfcnvrt@convarg+1
  1022   000FBE                     
  1023                           ;C:\Program Files\Microchip\xc8\v2.45\pic\sources\c99\common\doprnt.c: 1406:    *fmt = c
      +                          p+1;
  1024   000FBE  5044               	movf	vfpfcnvrt@fmt^0,w,c
  1025   000FC0  6ED9               	movwf	fsr2l,c
  1026   000FC2  6ADA               	clrf	fsr2h,c
  1027   000FC4  2848               	incf	vfpfcnvrt@cp^0,w,c
  1028   000FC6  6EDF               	movwf	indf2,c
  1029   000FC8                     
  1030                           ;C:\Program Files\Microchip\xc8\v2.45\pic\sources\c99\common\doprnt.c: 1408:    c = size
      +                          of(dbuf);
  1031   000FC8  0E20               	movlw	32
  1032   000FCA  6E4D               	movwf	vfpfcnvrt@c^0,c
  1033                           
  1034                           ;C:\Program Files\Microchip\xc8\v2.45\pic\sources\c99\common\doprnt.c: 1409:    done = c
      +                          onvarg.sint < 0;
  1035   000FCC  BE4A               	btfsc	(vfpfcnvrt@convarg+1)^0,7,c
  1036   000FCE  EFEB  F007         	goto	u631
  1037   000FD2  EFEE  F007         	goto	u630
  1038   000FD6                     u631:
  1039   000FD6  0E01               	movlw	1
  1040   000FD8  EFEF  F007         	goto	u640
  1041   000FDC                     u630:
  1042   000FDC  0E00               	movlw	0
  1043   000FDE                     u640:
  1044   000FDE  6E47               	movwf	vfpfcnvrt@done^0,c
  1045   000FE0                     l1583:
  1046                           
  1047                           ;C:\Program Files\Microchip\xc8\v2.45\pic\sources\c99\common\doprnt.c: 1411:     dbuf[--
      +                          c] = abs(convarg.sint % 10) + '0';
  1048   000FE0  064D               	decf	vfpfcnvrt@c^0,f,c
  1049   000FE2  504D               	movf	vfpfcnvrt@c^0,w,c
  1050   000FE4  0F01               	addlw	low _dbuf
  1051   000FE6  6ED9               	movwf	fsr2l,c
  1052   000FE8  6ADA               	clrf	fsr2h,c
  1053   000FEA  C049  F037         	movff	vfpfcnvrt@convarg,___awmod@dividend
  1054   000FEE  C04A  F038         	movff	vfpfcnvrt@convarg+1,___awmod@dividend+1
  1055   000FF2  0E00               	movlw	0
  1056   000FF4  6E3A               	movwf	(___awmod@divisor+1)^0,c
  1057   000FF6  0E0A               	movlw	10
  1058   000FF8  6E39               	movwf	___awmod@divisor^0,c
  1059   000FFA  ECE1  F009         	call	___awmod	;wreg free
  1060   000FFE  C037  F03D         	movff	?___awmod,abs@a
  1061   001002  C038  F03E         	movff	?___awmod+1,abs@a+1
  1062   001006  ECD8  F00A         	call	_abs	;wreg free
  1063   00100A  503D               	movf	?_abs^0,w,c
  1064   00100C  0F30               	addlw	48
  1065   00100E  6EDF               	movwf	indf2,c
  1066   001010                     
  1067                           ;C:\Program Files\Microchip\xc8\v2.45\pic\sources\c99\common\doprnt.c: 1412:     convarg
      +                          .sint /= 10;
  1068   001010  C049  F037         	movff	vfpfcnvrt@convarg,___awdiv@dividend
  1069   001014  C04A  F038         	movff	vfpfcnvrt@convarg+1,___awdiv@dividend+1
  1070   001018  0E00               	movlw	0
  1071   00101A  6E3A               	movwf	(___awdiv@divisor+1)^0,c
  1072   00101C  0E0A               	movlw	10
  1073   00101E  6E39               	movwf	___awdiv@divisor^0,c
  1074   001020  EC7F  F009         	call	___awdiv	;wreg free
  1075   001024  C037  F049         	movff	?___awdiv,vfpfcnvrt@convarg
  1076   001028  C038  F04A         	movff	?___awdiv+1,vfpfcnvrt@convarg+1
  1077   00102C                     
  1078                           ;C:\Program Files\Microchip\xc8\v2.45\pic\sources\c99\common\doprnt.c: 1416:    } while 
      +                          (convarg.sint != 0 && c != 0);
  1079   00102C  5049               	movf	vfpfcnvrt@convarg^0,w,c
  1080   00102E  104A               	iorwf	(vfpfcnvrt@convarg+1)^0,w,c
  1081   001030  B4D8               	btfsc	status,2,c
  1082   001032  EF1D  F008         	goto	u651
  1083   001036  EF1F  F008         	goto	u650
  1084   00103A                     u651:
  1085   00103A  EF27  F008         	goto	l1591
  1086   00103E                     u650:
  1087   00103E  504D               	movf	vfpfcnvrt@c^0,w,c
  1088   001040  A4D8               	btfss	status,2,c
  1089   001042  EF25  F008         	goto	u661
  1090   001046  EF27  F008         	goto	u660
  1091   00104A                     u661:
  1092   00104A  EFF0  F007         	goto	l1583
  1093   00104E                     u660:
  1094   00104E                     l1591:
  1095                           
  1096                           ;C:\Program Files\Microchip\xc8\v2.45\pic\sources\c99\common\doprnt.c: 1417:    if (c !=
      +                           0 && done) {
  1097   00104E  504D               	movf	vfpfcnvrt@c^0,w,c
  1098   001050  B4D8               	btfsc	status,2,c
  1099   001052  EF2D  F008         	goto	u671
  1100   001056  EF2F  F008         	goto	u670
  1101   00105A                     u671:
  1102   00105A  EF50  F008         	goto	l1601
  1103   00105E                     u670:
  1104   00105E  5047               	movf	vfpfcnvrt@done^0,w,c
  1105   001060  B4D8               	btfsc	status,2,c
  1106   001062  EF35  F008         	goto	u681
  1107   001066  EF37  F008         	goto	u680
  1108   00106A                     u681:
  1109   00106A  EF50  F008         	goto	l1601
  1110   00106E                     u680:
  1111   00106E                     
  1112                           ;C:\Program Files\Microchip\xc8\v2.45\pic\sources\c99\common\doprnt.c: 1418:     dbuf[--
      +                          c] = '-';
  1113   00106E  064D               	decf	vfpfcnvrt@c^0,f,c
  1114   001070  504D               	movf	vfpfcnvrt@c^0,w,c
  1115   001072  0F01               	addlw	low _dbuf
  1116   001074  6ED9               	movwf	fsr2l,c
  1117   001076  6ADA               	clrf	fsr2h,c
  1118   001078  0E2D               	movlw	45
  1119   00107A  6EDF               	movwf	indf2,c
  1120   00107C  EF50  F008         	goto	l1601
  1121   001080                     l1597:
  1122                           
  1123                           ;C:\Program Files\Microchip\xc8\v2.45\pic\sources\c99\common\doprnt.c: 1424:     fputc(d
      +                          buf[c++], fp);
  1124   001080  504D               	movf	vfpfcnvrt@c^0,w,c
  1125   001082  0F01               	addlw	low _dbuf
  1126   001084  6ED9               	movwf	fsr2l,c
  1127   001086  6ADA               	clrf	fsr2h,c
  1128   001088  50DF               	movf	indf2,w,c
  1129   00108A  6E46               	movwf	??_vfpfcnvrt^0,c
  1130   00108C  5046               	movf	??_vfpfcnvrt^0,w,c
  1131   00108E  6E39               	movwf	fputc@c^0,c
  1132   001090  6A3A               	clrf	(fputc@c+1)^0,c
  1133   001092  C042  F03B         	movff	vfpfcnvrt@fp,fputc@fp
  1134   001096  C043  F03C         	movff	vfpfcnvrt@fp+1,fputc@fp+1
  1135   00109A  EC1A  F009         	call	_fputc	;wreg free
  1136   00109E  2A4D               	incf	vfpfcnvrt@c^0,f,c
  1137   0010A0                     l1601:
  1138                           
  1139                           ;C:\Program Files\Microchip\xc8\v2.45\pic\sources\c99\common\doprnt.c: 1423:    while (c
      +                           != sizeof(dbuf)) {
  1140   0010A0  0E20               	movlw	32
  1141   0010A2  184D               	xorwf	vfpfcnvrt@c^0,w,c
  1142   0010A4  A4D8               	btfss	status,2,c
  1143   0010A6  EF57  F008         	goto	u691
  1144   0010AA  EF59  F008         	goto	u690
  1145   0010AE                     u691:
  1146   0010AE  EF40  F008         	goto	l1597
  1147   0010B2                     u690:
  1148   0010B2  EF74  F008         	goto	l1020
  1149   0010B6                     l1603:
  1150                           
  1151                           ;C:\Program Files\Microchip\xc8\v2.45\pic\sources\c99\common\doprnt.c: 1806:         ++*
      +                          fmt;
  1152   0010B6  5044               	movf	vfpfcnvrt@fmt^0,w,c
  1153   0010B8  6ED9               	movwf	fsr2l,c
  1154   0010BA  6ADA               	clrf	fsr2h,c
  1155   0010BC  2ADF               	incf	indf2,f,c
  1156   0010BE  EF74  F008         	goto	l1020
  1157   0010C2                     l1607:
  1158                           
  1159                           ;C:\Program Files\Microchip\xc8\v2.45\pic\sources\c99\common\doprnt.c: 1811:     fputc((
      +                          int)(*fmt)[0], fp);
  1160   0010C2  5044               	movf	vfpfcnvrt@fmt^0,w,c
  1161   0010C4  6ED9               	movwf	fsr2l,c
  1162   0010C6  6ADA               	clrf	fsr2h,c
  1163   0010C8  CFDF FFF6          	movff	indf2,tblptrl
  1164   0010CC                     	if	1	;There is more than 1 active tblptr byte
  1165   0010CC  0E0F               	movlw	high __smallconst
  1166   0010CE  6EF7               	movwf	tblptrh,c
  1167   0010D0                     	endif
  1168   0010D0                     	if	0	;tblptru may be non-zero
  1169   0010D0                     	endif
  1170   0010D0                     	if	0	;tblptru may be non-zero
  1171   0010D0                     	endif
  1172   0010D0  0008               	tblrd		*
  1173   0010D2  50F5               	movf	tablat,w,c
  1174   0010D4  6E39               	movwf	fputc@c^0,c
  1175   0010D6  6A3A               	clrf	(fputc@c+1)^0,c
  1176   0010D8  C042  F03B         	movff	vfpfcnvrt@fp,fputc@fp
  1177   0010DC  C043  F03C         	movff	vfpfcnvrt@fp+1,fputc@fp+1
  1178   0010E0  EC1A  F009         	call	_fputc	;wreg free
  1179   0010E4  EF5B  F008         	goto	l1603
  1180   0010E8                     l1020:
  1181   0010E8  0012               	return		;funcret
  1182   0010EA                     __end_of_vfpfcnvrt:
  1183                           	callstack 0
  1184                           
  1185 ;; *************** function _fputc *****************
  1186 ;; Defined at:
  1187 ;;		line 8 in file "C:\Program Files\Microchip\xc8\v2.45\pic\sources\c99\common\nf_fputc.c"
  1188 ;; Parameters:    Size  Location     Type
  1189 ;;  c               2    8[COMRAM] int 
  1190 ;;  fp              2   10[COMRAM] PTR struct _IO_FILE
  1191 ;;		 -> NULL(0), 
  1192 ;; Auto vars:     Size  Location     Type
  1193 ;;		None
  1194 ;; Return value:  Size  Location     Type
  1195 ;;                  2    8[COMRAM] int 
  1196 ;; Registers used:
  1197 ;;		wreg, fsr1l, fsr1h, fsr2l, fsr2h, status,2, status,0, cstack
  1198 ;; Tracked objects:
  1199 ;;		On entry : 0/0
  1200 ;;		On exit  : 0/0
  1201 ;;		Unchanged: 0/0
  1202 ;; Data sizes:     COMRAM   BANK0   BANK1   BANK2   BANK3   BANK4   BANK5   BANK6   BANK7   BANK8   BANK9  BANK10  BANK1
      +1  BANK12  BANK13  BANK14
  1203 ;;      Params:         4       0       0       0       0       0       0       0       0       0       0       0       
      +0       0       0       0
  1204 ;;      Locals:         0       0       0       0       0       0       0       0       0       0       0       0       
      +0       0       0       0
  1205 ;;      Temps:          5       0       0       0       0       0       0       0       0       0       0       0       
      +0       0       0       0
  1206 ;;      Totals:         9       0       0       0       0       0       0       0       0       0       0       0       
      +0       0       0       0
  1207 ;;Total ram usage:        9 bytes
  1208 ;; Hardware stack levels used: 1
  1209 ;; Hardware stack levels required when called: 5
  1210 ;; This function calls:
  1211 ;;		_putch
  1212 ;; This function is called by:
  1213 ;;		_vfpfcnvrt
  1214 ;; This function uses a non-reentrant model
  1215 ;;
  1216                           
  1217                           	psect	text5
  1218   001234                     __ptext5:
  1219                           	callstack 0
  1220   001234                     _fputc:
  1221                           	callstack 22
  1222   001234  503B               	movf	fputc@fp^0,w,c
  1223   001236  103C               	iorwf	(fputc@fp+1)^0,w,c
  1224   001238  B4D8               	btfsc	status,2,c
  1225   00123A  EF21  F009         	goto	u551
  1226   00123E  EF23  F009         	goto	u550
  1227   001242                     u551:
  1228   001242  EF2C  F009         	goto	l1541
  1229   001246                     u550:
  1230   001246  503B               	movf	fputc@fp^0,w,c
  1231   001248  103C               	iorwf	(fputc@fp+1)^0,w,c
  1232   00124A  A4D8               	btfss	status,2,c
  1233   00124C  EF2A  F009         	goto	u561
  1234   001250  EF2C  F009         	goto	u560
  1235   001254                     u561:
  1236   001254  EF31  F009         	goto	l1543
  1237   001258                     u560:
  1238   001258                     l1541:
  1239   001258  5039               	movf	fputc@c^0,w,c
  1240   00125A  EC96  F00B         	call	_putch
  1241   00125E  EF7E  F009         	goto	l1045
  1242   001262                     l1543:
  1243   001262  EE20 F00A          	lfsr	2,10
  1244   001266  503B               	movf	fputc@fp^0,w,c
  1245   001268  26D9               	addwf	fsr2l,f,c
  1246   00126A  503C               	movf	(fputc@fp+1)^0,w,c
  1247   00126C  22DA               	addwfc	fsr2h,f,c
  1248   00126E  50DE               	movf	postinc2,w,c
  1249   001270  10DE               	iorwf	postinc2,w,c
  1250   001272  B4D8               	btfsc	status,2,c
  1251   001274  EF3E  F009         	goto	u571
  1252   001278  EF40  F009         	goto	u570
  1253   00127C                     u571:
  1254   00127C  EF5B  F009         	goto	l1547
  1255   001280                     u570:
  1256   001280  EE20 F00A          	lfsr	2,10
  1257   001284  503B               	movf	fputc@fp^0,w,c
  1258   001286  26D9               	addwf	fsr2l,f,c
  1259   001288  503C               	movf	(fputc@fp+1)^0,w,c
  1260   00128A  22DA               	addwfc	fsr2h,f,c
  1261   00128C  EE10 F003          	lfsr	1,3
  1262   001290  503B               	movf	fputc@fp^0,w,c
  1263   001292  26E1               	addwf	fsr1l,f,c
  1264   001294  503C               	movf	(fputc@fp+1)^0,w,c
  1265   001296  22E2               	addwfc	fsr1h,f,c
  1266   001298  50DE               	movf	postinc2,w,c
  1267   00129A  5CE6               	subwf	postinc1,w,c
  1268   00129C  50E6               	movf	postinc1,w,c
  1269   00129E  0A80               	xorlw	128
  1270   0012A0  6E41               	movwf	(??_fputc+4)^0,c
  1271   0012A2  50DE               	movf	postinc2,w,c
  1272   0012A4  0A80               	xorlw	128
  1273   0012A6  5841               	subwfb	(??_fputc+4)^0,w,c
  1274   0012A8  B0D8               	btfsc	status,0,c
  1275   0012AA  EF59  F009         	goto	u581
  1276   0012AE  EF5B  F009         	goto	u580
  1277   0012B2                     u581:
  1278   0012B2  EF7E  F009         	goto	l1045
  1279   0012B6                     u580:
  1280   0012B6                     l1547:
  1281   0012B6  EE20 F003          	lfsr	2,3
  1282   0012BA  503B               	movf	fputc@fp^0,w,c
  1283   0012BC  26D9               	addwf	fsr2l,f,c
  1284   0012BE  503C               	movf	(fputc@fp+1)^0,w,c
  1285   0012C0  22DA               	addwfc	fsr2h,f,c
  1286   0012C2  CFDE F03D          	movff	postinc2,??_fputc
  1287   0012C6  CFDD F03E          	movff	postdec2,??_fputc+1
  1288   0012CA  C03B  FFD9         	movff	fputc@fp,fsr2l
  1289   0012CE  C03C  FFDA         	movff	fputc@fp+1,fsr2h
  1290   0012D2  CFDE F03F          	movff	postinc2,??_fputc+2
  1291   0012D6  CFDD F040          	movff	postdec2,??_fputc+3
  1292   0012DA  503D               	movf	??_fputc^0,w,c
  1293   0012DC  243F               	addwf	(??_fputc+2)^0,w,c
  1294   0012DE  6ED9               	movwf	fsr2l,c
  1295   0012E0  503E               	movf	(??_fputc+1)^0,w,c
  1296   0012E2  2040               	addwfc	(??_fputc+3)^0,w,c
  1297   0012E4  6EDA               	movwf	fsr2h,c
  1298   0012E6  C039  FFDF         	movff	fputc@c,indf2
  1299   0012EA  EE20 F003          	lfsr	2,3
  1300   0012EE  503B               	movf	fputc@fp^0,w,c
  1301   0012F0  26D9               	addwf	fsr2l,f,c
  1302   0012F2  503C               	movf	(fputc@fp+1)^0,w,c
  1303   0012F4  22DA               	addwfc	fsr2h,f,c
  1304   0012F6  2ADE               	incf	postinc2,f,c
  1305   0012F8  0E00               	movlw	0
  1306   0012FA  22DD               	addwfc	postdec2,f,c
  1307   0012FC                     l1045:
  1308   0012FC  0012               	return		;funcret
  1309   0012FE                     __end_of_fputc:
  1310                           	callstack 0
  1311                           
  1312 ;; *************** function _putch *****************
  1313 ;; Defined at:
  1314 ;;		line 142 in file "mcc_generated_files/eusart1.c"
  1315 ;; Parameters:    Size  Location     Type
  1316 ;;  txData          1    wreg     unsigned char 
  1317 ;; Auto vars:     Size  Location     Type
  1318 ;;  txData          1    7[COMRAM] unsigned char 
  1319 ;; Return value:  Size  Location     Type
  1320 ;;                  1    wreg      void 
  1321 ;; Registers used:
  1322 ;;		wreg, status,2, cstack
  1323 ;; Tracked objects:
  1324 ;;		On entry : 0/0
  1325 ;;		On exit  : 0/0
  1326 ;;		Unchanged: 0/0
  1327 ;; Data sizes:     COMRAM   BANK0   BANK1   BANK2   BANK3   BANK4   BANK5   BANK6   BANK7   BANK8   BANK9  BANK10  BANK1
      +1  BANK12  BANK13  BANK14
  1328 ;;      Params:         0       0       0       0       0       0       0       0       0       0       0       0       
      +0       0       0       0
  1329 ;;      Locals:         1       0       0       0       0       0       0       0       0       0       0       0       
      +0       0       0       0
  1330 ;;      Temps:          0       0       0       0       0       0       0       0       0       0       0       0       
      +0       0       0       0
  1331 ;;      Totals:         1       0       0       0       0       0       0       0       0       0       0       0       
      +0       0       0       0
  1332 ;;Total ram usage:        1 bytes
  1333 ;; Hardware stack levels used: 1
  1334 ;; Hardware stack levels required when called: 4
  1335 ;; This function calls:
  1336 ;;		_EUSART1_Write
  1337 ;; This function is called by:
  1338 ;;		_fputc
  1339 ;; This function uses a non-reentrant model
  1340 ;;
  1341                           
  1342                           	psect	text6
  1343   00172C                     __ptext6:
  1344                           	callstack 0
  1345   00172C                     _putch:
  1346                           	callstack 22
  1347                           
  1348                           ;incstack = 0
  1349                           ;putch@txData stored from wreg
  1350   00172C  6E38               	movwf	putch@txData^0,c
  1351   00172E                     
  1352                           ;mcc_generated_files/eusart1.c: 142: void putch(char txData);mcc_generated_files/eusart1
      +                          .c: 143: {;mcc_generated_files/eusart1.c: 144:     EUSART1_Write(txData);
  1353   00172E  5038               	movf	putch@txData^0,w,c
  1354   001730  EC71  F00B         	call	_EUSART1_Write
  1355   001734  0012               	return		;funcret
  1356   001736                     __end_of_putch:
  1357                           	callstack 0
  1358                           
  1359 ;; *************** function _abs *****************
  1360 ;; Defined at:
  1361 ;;		line 1 in file "C:\Program Files\Microchip\xc8\v2.45\pic\sources\c99\common\abs.c"
  1362 ;; Parameters:    Size  Location     Type
  1363 ;;  a               2   12[COMRAM] int 
  1364 ;; Auto vars:     Size  Location     Type
  1365 ;;		None
  1366 ;; Return value:  Size  Location     Type
  1367 ;;                  2   12[COMRAM] int 
  1368 ;; Registers used:
  1369 ;;		wreg, status,2, status,0
  1370 ;; Tracked objects:
  1371 ;;		On entry : 0/0
  1372 ;;		On exit  : 0/0
  1373 ;;		Unchanged: 0/0
  1374 ;; Data sizes:     COMRAM   BANK0   BANK1   BANK2   BANK3   BANK4   BANK5   BANK6   BANK7   BANK8   BANK9  BANK10  BANK1
      +1  BANK12  BANK13  BANK14
  1375 ;;      Params:         2       0       0       0       0       0       0       0       0       0       0       0       
      +0       0       0       0
  1376 ;;      Locals:         0       0       0       0       0       0       0       0       0       0       0       0       
      +0       0       0       0
  1377 ;;      Temps:          2       0       0       0       0       0       0       0       0       0       0       0       
      +0       0       0       0
  1378 ;;      Totals:         4       0       0       0       0       0       0       0       0       0       0       0       
      +0       0       0       0
  1379 ;;Total ram usage:        4 bytes
  1380 ;; Hardware stack levels used: 1
  1381 ;; Hardware stack levels required when called: 3
  1382 ;; This function calls:
  1383 ;;		Nothing
  1384 ;; This function is called by:
  1385 ;;		_vfpfcnvrt
  1386 ;; This function uses a non-reentrant model
  1387 ;;
  1388                           
  1389                           	psect	text7
  1390   0015B0                     __ptext7:
  1391                           	callstack 0
  1392   0015B0                     _abs:
  1393                           	callstack 24
  1394   0015B0  BE3E               	btfsc	(abs@a+1)^0,7,c
  1395   0015B2  EFDD  F00A         	goto	u591
  1396   0015B6  EFDF  F00A         	goto	u590
  1397   0015BA                     u591:
  1398   0015BA  EFE5  F00A         	goto	l1030
  1399   0015BE                     u590:
  1400   0015BE  C03D  F03D         	movff	abs@a,?_abs
  1401   0015C2  C03E  F03E         	movff	abs@a+1,?_abs+1
  1402   0015C6  EFF1  F00A         	goto	l1033
  1403   0015CA                     l1030:
  1404   0015CA  C03D  F03F         	movff	abs@a,??_abs
  1405   0015CE  C03E  F040         	movff	abs@a+1,??_abs+1
  1406   0015D2  1E3F               	comf	??_abs^0,f,c
  1407   0015D4  1E40               	comf	(??_abs+1)^0,f,c
  1408   0015D6  4A3F               	infsnz	??_abs^0,f,c
  1409   0015D8  2A40               	incf	(??_abs+1)^0,f,c
  1410   0015DA  C03F  F03D         	movff	??_abs,?_abs
  1411   0015DE  C040  F03E         	movff	??_abs+1,?_abs+1
  1412   0015E2                     l1033:
  1413   0015E2  0012               	return		;funcret
  1414   0015E4                     __end_of_abs:
  1415                           	callstack 0
  1416                           
  1417 ;; *************** function ___awmod *****************
  1418 ;; Defined at:
  1419 ;;		line 7 in file "C:\Program Files\Microchip\xc8\v2.45\pic\sources\c99\common\awmod.c"
  1420 ;; Parameters:    Size  Location     Type
  1421 ;;  dividend        2    6[COMRAM] int 
  1422 ;;  divisor         2    8[COMRAM] int 
  1423 ;; Auto vars:     Size  Location     Type
  1424 ;;  sign            1   11[COMRAM] unsigned char 
  1425 ;;  counter         1   10[COMRAM] unsigned char 
  1426 ;; Return value:  Size  Location     Type
  1427 ;;                  2    6[COMRAM] int 
  1428 ;; Registers used:
  1429 ;;		wreg, status,2, status,0
  1430 ;; Tracked objects:
  1431 ;;		On entry : 0/0
  1432 ;;		On exit  : 0/0
  1433 ;;		Unchanged: 0/0
  1434 ;; Data sizes:     COMRAM   BANK0   BANK1   BANK2   BANK3   BANK4   BANK5   BANK6   BANK7   BANK8   BANK9  BANK10  BANK1
      +1  BANK12  BANK13  BANK14
  1435 ;;      Params:         4       0       0       0       0       0       0       0       0       0       0       0       
      +0       0       0       0
  1436 ;;      Locals:         2       0       0       0       0       0       0       0       0       0       0       0       
      +0       0       0       0
  1437 ;;      Temps:          0       0       0       0       0       0       0       0       0       0       0       0       
      +0       0       0       0
  1438 ;;      Totals:         6       0       0       0       0       0       0       0       0       0       0       0       
      +0       0       0       0
  1439 ;;Total ram usage:        6 bytes
  1440 ;; Hardware stack levels used: 1
  1441 ;; Hardware stack levels required when called: 3
  1442 ;; This function calls:
  1443 ;;		Nothing
  1444 ;; This function is called by:
  1445 ;;		_vfpfcnvrt
  1446 ;; This function uses a non-reentrant model
  1447 ;;
  1448                           
  1449                           	psect	text8
  1450   0013C2                     __ptext8:
  1451                           	callstack 0
  1452   0013C2                     ___awmod:
  1453                           	callstack 24
  1454   0013C2  0E00               	movlw	0
  1455   0013C4  6E3C               	movwf	___awmod@sign^0,c
  1456   0013C6  BE38               	btfsc	(___awmod@dividend+1)^0,7,c
  1457   0013C8  EFEA  F009         	goto	u490
  1458   0013CC  EFE8  F009         	goto	u491
  1459   0013D0                     u491:
  1460   0013D0  EFF0  F009         	goto	l1509
  1461   0013D4                     u490:
  1462   0013D4  6C37               	negf	___awmod@dividend^0,c
  1463   0013D6  1E38               	comf	(___awmod@dividend+1)^0,f,c
  1464   0013D8  B0D8               	btfsc	status,0,c
  1465   0013DA  2A38               	incf	(___awmod@dividend+1)^0,f,c
  1466   0013DC  0E01               	movlw	1
  1467   0013DE  6E3C               	movwf	___awmod@sign^0,c
  1468   0013E0                     l1509:
  1469   0013E0  BE3A               	btfsc	(___awmod@divisor+1)^0,7,c
  1470   0013E2  EFF7  F009         	goto	u500
  1471   0013E6  EFF5  F009         	goto	u501
  1472   0013EA                     u501:
  1473   0013EA  EFFB  F009         	goto	l1513
  1474   0013EE                     u500:
  1475   0013EE  6C39               	negf	___awmod@divisor^0,c
  1476   0013F0  1E3A               	comf	(___awmod@divisor+1)^0,f,c
  1477   0013F2  B0D8               	btfsc	status,0,c
  1478   0013F4  2A3A               	incf	(___awmod@divisor+1)^0,f,c
  1479   0013F6                     l1513:
  1480   0013F6  5039               	movf	___awmod@divisor^0,w,c
  1481   0013F8  103A               	iorwf	(___awmod@divisor+1)^0,w,c
  1482   0013FA  B4D8               	btfsc	status,2,c
  1483   0013FC  EF02  F00A         	goto	u511
  1484   001400  EF04  F00A         	goto	u510
  1485   001404                     u511:
  1486   001404  EF28  F00A         	goto	l1529
  1487   001408                     u510:
  1488   001408  0E01               	movlw	1
  1489   00140A  6E3B               	movwf	___awmod@counter^0,c
  1490   00140C  EF0C  F00A         	goto	l1519
  1491   001410                     l1517:
  1492   001410  90D8               	bcf	status,0,c
  1493   001412  3639               	rlcf	___awmod@divisor^0,f,c
  1494   001414  363A               	rlcf	(___awmod@divisor+1)^0,f,c
  1495   001416  2A3B               	incf	___awmod@counter^0,f,c
  1496   001418                     l1519:
  1497   001418  AE3A               	btfss	(___awmod@divisor+1)^0,7,c
  1498   00141A  EF11  F00A         	goto	u521
  1499   00141E  EF13  F00A         	goto	u520
  1500   001422                     u521:
  1501   001422  EF08  F00A         	goto	l1517
  1502   001426                     u520:
  1503   001426                     l1521:
  1504   001426  5039               	movf	___awmod@divisor^0,w,c
  1505   001428  5C37               	subwf	___awmod@dividend^0,w,c
  1506   00142A  503A               	movf	(___awmod@divisor+1)^0,w,c
  1507   00142C  5838               	subwfb	(___awmod@dividend+1)^0,w,c
  1508   00142E  A0D8               	btfss	status,0,c
  1509   001430  EF1C  F00A         	goto	u531
  1510   001434  EF1E  F00A         	goto	u530
  1511   001438                     u531:
  1512   001438  EF22  F00A         	goto	l1525
  1513   00143C                     u530:
  1514   00143C  5039               	movf	___awmod@divisor^0,w,c
  1515   00143E  5E37               	subwf	___awmod@dividend^0,f,c
  1516   001440  503A               	movf	(___awmod@divisor+1)^0,w,c
  1517   001442  5A38               	subwfb	(___awmod@dividend+1)^0,f,c
  1518   001444                     l1525:
  1519   001444  90D8               	bcf	status,0,c
  1520   001446  323A               	rrcf	(___awmod@divisor+1)^0,f,c
  1521   001448  3239               	rrcf	___awmod@divisor^0,f,c
  1522   00144A  2E3B               	decfsz	___awmod@counter^0,f,c
  1523   00144C  EF13  F00A         	goto	l1521
  1524   001450                     l1529:
  1525   001450  503C               	movf	___awmod@sign^0,w,c
  1526   001452  B4D8               	btfsc	status,2,c
  1527   001454  EF2E  F00A         	goto	u541
  1528   001458  EF30  F00A         	goto	u540
  1529   00145C                     u541:
  1530   00145C  EF34  F00A         	goto	l1533
  1531   001460                     u540:
  1532   001460  6C37               	negf	___awmod@dividend^0,c
  1533   001462  1E38               	comf	(___awmod@dividend+1)^0,f,c
  1534   001464  B0D8               	btfsc	status,0,c
  1535   001466  2A38               	incf	(___awmod@dividend+1)^0,f,c
  1536   001468                     l1533:
  1537   001468  C037  F037         	movff	___awmod@dividend,?___awmod
  1538   00146C  C038  F038         	movff	___awmod@dividend+1,?___awmod+1
  1539   001470  0012               	return		;funcret
  1540   001472                     __end_of___awmod:
  1541                           	callstack 0
  1542                           
  1543 ;; *************** function ___awdiv *****************
  1544 ;; Defined at:
  1545 ;;		line 7 in file "C:\Program Files\Microchip\xc8\v2.45\pic\sources\c99\common\awdiv.c"
  1546 ;; Parameters:    Size  Location     Type
  1547 ;;  dividend        2    6[COMRAM] int 
  1548 ;;  divisor         2    8[COMRAM] int 
  1549 ;; Auto vars:     Size  Location     Type
  1550 ;;  quotient        2   12[COMRAM] int 
  1551 ;;  sign            1   11[COMRAM] unsigned char 
  1552 ;;  counter         1   10[COMRAM] unsigned char 
  1553 ;; Return value:  Size  Location     Type
  1554 ;;                  2    6[COMRAM] int 
  1555 ;; Registers used:
  1556 ;;		wreg, status,2, status,0
  1557 ;; Tracked objects:
  1558 ;;		On entry : 0/0
  1559 ;;		On exit  : 0/0
  1560 ;;		Unchanged: 0/0
  1561 ;; Data sizes:     COMRAM   BANK0   BANK1   BANK2   BANK3   BANK4   BANK5   BANK6   BANK7   BANK8   BANK9  BANK10  BANK1
      +1  BANK12  BANK13  BANK14
  1562 ;;      Params:         4       0       0       0       0       0       0       0       0       0       0       0       
      +0       0       0       0
  1563 ;;      Locals:         4       0       0       0       0       0       0       0       0       0       0       0       
      +0       0       0       0
  1564 ;;      Temps:          0       0       0       0       0       0       0       0       0       0       0       0       
      +0       0       0       0
  1565 ;;      Totals:         8       0       0       0       0       0       0       0       0       0       0       0       
      +0       0       0       0
  1566 ;;Total ram usage:        8 bytes
  1567 ;; Hardware stack levels used: 1
  1568 ;; Hardware stack levels required when called: 3
  1569 ;; This function calls:
  1570 ;;		Nothing
  1571 ;; This function is called by:
  1572 ;;		_vfpfcnvrt
  1573 ;; This function uses a non-reentrant model
  1574 ;;
  1575                           
  1576                           	psect	text9
  1577   0012FE                     __ptext9:
  1578                           	callstack 0
  1579   0012FE                     ___awdiv:
  1580                           	callstack 24
  1581   0012FE  0E00               	movlw	0
  1582   001300  6E3C               	movwf	___awdiv@sign^0,c
  1583   001302  BE3A               	btfsc	(___awdiv@divisor+1)^0,7,c
  1584   001304  EF88  F009         	goto	u430
  1585   001308  EF86  F009         	goto	u431
  1586   00130C                     u431:
  1587   00130C  EF8E  F009         	goto	l1465
  1588   001310                     u430:
  1589   001310  6C39               	negf	___awdiv@divisor^0,c
  1590   001312  1E3A               	comf	(___awdiv@divisor+1)^0,f,c
  1591   001314  B0D8               	btfsc	status,0,c
  1592   001316  2A3A               	incf	(___awdiv@divisor+1)^0,f,c
  1593   001318  0E01               	movlw	1
  1594   00131A  6E3C               	movwf	___awdiv@sign^0,c
  1595   00131C                     l1465:
  1596   00131C  BE38               	btfsc	(___awdiv@dividend+1)^0,7,c
  1597   00131E  EF95  F009         	goto	u440
  1598   001322  EF93  F009         	goto	u441
  1599   001326                     u441:
  1600   001326  EF9B  F009         	goto	l1471
  1601   00132A                     u440:
  1602   00132A  6C37               	negf	___awdiv@dividend^0,c
  1603   00132C  1E38               	comf	(___awdiv@dividend+1)^0,f,c
  1604   00132E  B0D8               	btfsc	status,0,c
  1605   001330  2A38               	incf	(___awdiv@dividend+1)^0,f,c
  1606   001332  0E01               	movlw	1
  1607   001334  1A3C               	xorwf	___awdiv@sign^0,f,c
  1608   001336                     l1471:
  1609   001336  0E00               	movlw	0
  1610   001338  6E3E               	movwf	(___awdiv@quotient+1)^0,c
  1611   00133A  0E00               	movlw	0
  1612   00133C  6E3D               	movwf	___awdiv@quotient^0,c
  1613   00133E  5039               	movf	___awdiv@divisor^0,w,c
  1614   001340  103A               	iorwf	(___awdiv@divisor+1)^0,w,c
  1615   001342  B4D8               	btfsc	status,2,c
  1616   001344  EFA6  F009         	goto	u451
  1617   001348  EFA8  F009         	goto	u450
  1618   00134C                     u451:
  1619   00134C  EFD0  F009         	goto	l1493
  1620   001350                     u450:
  1621   001350  0E01               	movlw	1
  1622   001352  6E3B               	movwf	___awdiv@counter^0,c
  1623   001354  EFB0  F009         	goto	l1479
  1624   001358                     l1477:
  1625   001358  90D8               	bcf	status,0,c
  1626   00135A  3639               	rlcf	___awdiv@divisor^0,f,c
  1627   00135C  363A               	rlcf	(___awdiv@divisor+1)^0,f,c
  1628   00135E  2A3B               	incf	___awdiv@counter^0,f,c
  1629   001360                     l1479:
  1630   001360  AE3A               	btfss	(___awdiv@divisor+1)^0,7,c
  1631   001362  EFB5  F009         	goto	u461
  1632   001366  EFB7  F009         	goto	u460
  1633   00136A                     u461:
  1634   00136A  EFAC  F009         	goto	l1477
  1635   00136E                     u460:
  1636   00136E                     l1481:
  1637   00136E  90D8               	bcf	status,0,c
  1638   001370  363D               	rlcf	___awdiv@quotient^0,f,c
  1639   001372  363E               	rlcf	(___awdiv@quotient+1)^0,f,c
  1640   001374  5039               	movf	___awdiv@divisor^0,w,c
  1641   001376  5C37               	subwf	___awdiv@dividend^0,w,c
  1642   001378  503A               	movf	(___awdiv@divisor+1)^0,w,c
  1643   00137A  5838               	subwfb	(___awdiv@dividend+1)^0,w,c
  1644   00137C  A0D8               	btfss	status,0,c
  1645   00137E  EFC3  F009         	goto	u471
  1646   001382  EFC5  F009         	goto	u470
  1647   001386                     u471:
  1648   001386  EFCA  F009         	goto	l1489
  1649   00138A                     u470:
  1650   00138A  5039               	movf	___awdiv@divisor^0,w,c
  1651   00138C  5E37               	subwf	___awdiv@dividend^0,f,c
  1652   00138E  503A               	movf	(___awdiv@divisor+1)^0,w,c
  1653   001390  5A38               	subwfb	(___awdiv@dividend+1)^0,f,c
  1654   001392  803D               	bsf	___awdiv@quotient^0,0,c
  1655   001394                     l1489:
  1656   001394  90D8               	bcf	status,0,c
  1657   001396  323A               	rrcf	(___awdiv@divisor+1)^0,f,c
  1658   001398  3239               	rrcf	___awdiv@divisor^0,f,c
  1659   00139A  2E3B               	decfsz	___awdiv@counter^0,f,c
  1660   00139C  EFB7  F009         	goto	l1481
  1661   0013A0                     l1493:
  1662   0013A0  503C               	movf	___awdiv@sign^0,w,c
  1663   0013A2  B4D8               	btfsc	status,2,c
  1664   0013A4  EFD6  F009         	goto	u481
  1665   0013A8  EFD8  F009         	goto	u480
  1666   0013AC                     u481:
  1667   0013AC  EFDC  F009         	goto	l1497
  1668   0013B0                     u480:
  1669   0013B0  6C3D               	negf	___awdiv@quotient^0,c
  1670   0013B2  1E3E               	comf	(___awdiv@quotient+1)^0,f,c
  1671   0013B4  B0D8               	btfsc	status,0,c
  1672   0013B6  2A3E               	incf	(___awdiv@quotient+1)^0,f,c
  1673   0013B8                     l1497:
  1674   0013B8  C03D  F037         	movff	___awdiv@quotient,?___awdiv
  1675   0013BC  C03E  F038         	movff	___awdiv@quotient+1,?___awdiv+1
  1676   0013C0  0012               	return		;funcret
  1677   0013C2                     __end_of___awdiv:
  1678                           	callstack 0
  1679                           
  1680 ;; *************** function _curseurPosition *****************
  1681 ;; Defined at:
  1682 ;;		line 15 in file "ecran.c"
  1683 ;; Parameters:    Size  Location     Type
  1684 ;;  position        2    7[COMRAM] int 
  1685 ;; Auto vars:     Size  Location     Type
  1686 ;;		None
  1687 ;; Return value:  Size  Location     Type
  1688 ;;                  1    wreg      void 
  1689 ;; Registers used:
  1690 ;;		wreg, status,2, cstack
  1691 ;; Tracked objects:
  1692 ;;		On entry : 0/0
  1693 ;;		On exit  : 0/0
  1694 ;;		Unchanged: 0/0
  1695 ;; Data sizes:     COMRAM   BANK0   BANK1   BANK2   BANK3   BANK4   BANK5   BANK6   BANK7   BANK8   BANK9  BANK10  BANK1
      +1  BANK12  BANK13  BANK14
  1696 ;;      Params:         2       0       0       0       0       0       0       0       0       0       0       0       
      +0       0       0       0
  1697 ;;      Locals:         0       0       0       0       0       0       0       0       0       0       0       0       
      +0       0       0       0
  1698 ;;      Temps:          0       0       0       0       0       0       0       0       0       0       0       0       
      +0       0       0       0
  1699 ;;      Totals:         2       0       0       0       0       0       0       0       0       0       0       0       
      +0       0       0       0
  1700 ;;Total ram usage:        2 bytes
  1701 ;; Hardware stack levels used: 1
  1702 ;; Hardware stack levels required when called: 4
  1703 ;; This function calls:
  1704 ;;		_EUSART1_Write
  1705 ;; This function is called by:
  1706 ;;		_main
  1707 ;; This function uses a non-reentrant model
  1708 ;;
  1709                           
  1710                           	psect	text10
  1711   0016F8                     __ptext10:
  1712                           	callstack 0
  1713   0016F8                     _curseurPosition:
  1714                           	callstack 26
  1715   0016F8                     
  1716                           ;ecran.c: 15: void curseurPosition(int position);ecran.c: 16: {;ecran.c: 17:     EUSART1
      +                          _Write(0xFE);
  1717   0016F8  0EFE               	movlw	254
  1718   0016FA  EC71  F00B         	call	_EUSART1_Write
  1719                           
  1720                           ;ecran.c: 18:     EUSART1_Write(0x45);
  1721   0016FE  0E45               	movlw	69
  1722   001700  EC71  F00B         	call	_EUSART1_Write
  1723   001704                     
  1724                           ;ecran.c: 19:     EUSART1_Write(position);
  1725   001704  5038               	movf	curseurPosition@position^0,w,c
  1726   001706  EC71  F00B         	call	_EUSART1_Write
  1727   00170A  0012               	return		;funcret
  1728   00170C                     __end_of_curseurPosition:
  1729                           	callstack 0
  1730                           
  1731 ;; *************** function _EUSART1_Write *****************
  1732 ;; Defined at:
  1733 ;;		line 132 in file "mcc_generated_files/eusart1.c"
  1734 ;; Parameters:    Size  Location     Type
  1735 ;;  txData          1    wreg     unsigned char 
  1736 ;; Auto vars:     Size  Location     Type
  1737 ;;  txData          1    6[COMRAM] unsigned char 
  1738 ;; Return value:  Size  Location     Type
  1739 ;;                  1    wreg      void 
  1740 ;; Registers used:
  1741 ;;		wreg
  1742 ;; Tracked objects:
  1743 ;;		On entry : 0/0
  1744 ;;		On exit  : 0/0
  1745 ;;		Unchanged: 0/0
  1746 ;; Data sizes:     COMRAM   BANK0   BANK1   BANK2   BANK3   BANK4   BANK5   BANK6   BANK7   BANK8   BANK9  BANK10  BANK1
      +1  BANK12  BANK13  BANK14
  1747 ;;      Params:         0       0       0       0       0       0       0       0       0       0       0       0       
      +0       0       0       0
  1748 ;;      Locals:         1       0       0       0       0       0       0       0       0       0       0       0       
      +0       0       0       0
  1749 ;;      Temps:          0       0       0       0       0       0       0       0       0       0       0       0       
      +0       0       0       0
  1750 ;;      Totals:         1       0       0       0       0       0       0       0       0       0       0       0       
      +0       0       0       0
  1751 ;;Total ram usage:        1 bytes
  1752 ;; Hardware stack levels used: 1
  1753 ;; Hardware stack levels required when called: 3
  1754 ;; This function calls:
  1755 ;;		Nothing
  1756 ;; This function is called by:
  1757 ;;		_putch
  1758 ;;		_curseurPosition
  1759 ;;		_videEcran
  1760 ;;		_ecranAllume
  1761 ;;		_ecranEteint
  1762 ;;		_ecrireCaractere
  1763 ;;		_backlight
  1764 ;; This function uses a non-reentrant model
  1765 ;;
  1766                           
  1767                           	psect	text11
  1768   0016E2                     __ptext11:
  1769                           	callstack 0
  1770   0016E2                     _EUSART1_Write:
  1771                           	callstack 26
  1772                           
  1773                           ;incstack = 0
  1774                           ;EUSART1_Write@txData stored from wreg
  1775   0016E2  6E37               	movwf	EUSART1_Write@txData^0,c
  1776   0016E4                     l188:
  1777                           
  1778                           ;mcc_generated_files/eusart1.c: 134:     while(0 == PIR1bits.TX1IF)
  1779   0016E4  A89E               	btfss	158,4,c	;volatile
  1780   0016E6  EF77  F00B         	goto	u11
  1781   0016EA  EF79  F00B         	goto	u10
  1782   0016EE                     u11:
  1783   0016EE  EF72  F00B         	goto	l188
  1784   0016F2                     u10:
  1785   0016F2                     
  1786                           ;mcc_generated_files/eusart1.c: 138:     TXREG1 = txData;
  1787   0016F2  C037  FFAD         	movff	EUSART1_Write@txData,4013	;volatile
  1788   0016F6  0012               	return		;funcret
  1789   0016F8                     __end_of_EUSART1_Write:
  1790                           	callstack 0
  1791                           
  1792 ;; *************** function ___lwdiv *****************
  1793 ;; Defined at:
  1794 ;;		line 7 in file "C:\Program Files\Microchip\xc8\v2.45\pic\sources\c99\common\lwdiv.c"
  1795 ;; Parameters:    Size  Location     Type
  1796 ;;  dividend        2    6[COMRAM] unsigned int 
  1797 ;;  divisor         2    8[COMRAM] unsigned int 
  1798 ;; Auto vars:     Size  Location     Type
  1799 ;;  quotient        2   10[COMRAM] unsigned int 
  1800 ;;  counter         1   12[COMRAM] unsigned char 
  1801 ;; Return value:  Size  Location     Type
  1802 ;;                  2    6[COMRAM] unsigned int 
  1803 ;; Registers used:
  1804 ;;		wreg, status,2, status,0
  1805 ;; Tracked objects:
  1806 ;;		On entry : 0/0
  1807 ;;		On exit  : 0/0
  1808 ;;		Unchanged: 0/0
  1809 ;; Data sizes:     COMRAM   BANK0   BANK1   BANK2   BANK3   BANK4   BANK5   BANK6   BANK7   BANK8   BANK9  BANK10  BANK1
      +1  BANK12  BANK13  BANK14
  1810 ;;      Params:         4       0       0       0       0       0       0       0       0       0       0       0       
      +0       0       0       0
  1811 ;;      Locals:         3       0       0       0       0       0       0       0       0       0       0       0       
      +0       0       0       0
  1812 ;;      Temps:          0       0       0       0       0       0       0       0       0       0       0       0       
      +0       0       0       0
  1813 ;;      Totals:         7       0       0       0       0       0       0       0       0       0       0       0       
      +0       0       0       0
  1814 ;;Total ram usage:        7 bytes
  1815 ;; Hardware stack levels used: 1
  1816 ;; Hardware stack levels required when called: 3
  1817 ;; This function calls:
  1818 ;;		Nothing
  1819 ;; This function is called by:
  1820 ;;		_main
  1821 ;; This function uses a non-reentrant model
  1822 ;;
  1823                           
  1824                           	psect	text12
  1825   001472                     __ptext12:
  1826                           	callstack 0
  1827   001472                     ___lwdiv:
  1828                           	callstack 27
  1829   001472  0E00               	movlw	0
  1830   001474  6E3C               	movwf	(___lwdiv@quotient+1)^0,c
  1831   001476  0E00               	movlw	0
  1832   001478  6E3B               	movwf	___lwdiv@quotient^0,c
  1833   00147A  5039               	movf	___lwdiv@divisor^0,w,c
  1834   00147C  103A               	iorwf	(___lwdiv@divisor+1)^0,w,c
  1835   00147E  B4D8               	btfsc	status,2,c
  1836   001480  EF44  F00A         	goto	u721
  1837   001484  EF46  F00A         	goto	u720
  1838   001488                     u721:
  1839   001488  EF6E  F00A         	goto	l795
  1840   00148C                     u720:
  1841   00148C  0E01               	movlw	1
  1842   00148E  6E3D               	movwf	___lwdiv@counter^0,c
  1843   001490  EF4E  F00A         	goto	l1677
  1844   001494                     l1675:
  1845   001494  90D8               	bcf	status,0,c
  1846   001496  3639               	rlcf	___lwdiv@divisor^0,f,c
  1847   001498  363A               	rlcf	(___lwdiv@divisor+1)^0,f,c
  1848   00149A  2A3D               	incf	___lwdiv@counter^0,f,c
  1849   00149C                     l1677:
  1850   00149C  AE3A               	btfss	(___lwdiv@divisor+1)^0,7,c
  1851   00149E  EF53  F00A         	goto	u731
  1852   0014A2  EF55  F00A         	goto	u730
  1853   0014A6                     u731:
  1854   0014A6  EF4A  F00A         	goto	l1675
  1855   0014AA                     u730:
  1856   0014AA                     l1679:
  1857   0014AA  90D8               	bcf	status,0,c
  1858   0014AC  363B               	rlcf	___lwdiv@quotient^0,f,c
  1859   0014AE  363C               	rlcf	(___lwdiv@quotient+1)^0,f,c
  1860   0014B0  5039               	movf	___lwdiv@divisor^0,w,c
  1861   0014B2  5C37               	subwf	___lwdiv@dividend^0,w,c
  1862   0014B4  503A               	movf	(___lwdiv@divisor+1)^0,w,c
  1863   0014B6  5838               	subwfb	(___lwdiv@dividend+1)^0,w,c
  1864   0014B8  A0D8               	btfss	status,0,c
  1865   0014BA  EF61  F00A         	goto	u741
  1866   0014BE  EF63  F00A         	goto	u740
  1867   0014C2                     u741:
  1868   0014C2  EF68  F00A         	goto	l1687
  1869   0014C6                     u740:
  1870   0014C6  5039               	movf	___lwdiv@divisor^0,w,c
  1871   0014C8  5E37               	subwf	___lwdiv@dividend^0,f,c
  1872   0014CA  503A               	movf	(___lwdiv@divisor+1)^0,w,c
  1873   0014CC  5A38               	subwfb	(___lwdiv@dividend+1)^0,f,c
  1874   0014CE  803B               	bsf	___lwdiv@quotient^0,0,c
  1875   0014D0                     l1687:
  1876   0014D0  90D8               	bcf	status,0,c
  1877   0014D2  323A               	rrcf	(___lwdiv@divisor+1)^0,f,c
  1878   0014D4  3239               	rrcf	___lwdiv@divisor^0,f,c
  1879   0014D6  2E3D               	decfsz	___lwdiv@counter^0,f,c
  1880   0014D8  EF55  F00A         	goto	l1679
  1881   0014DC                     l795:
  1882   0014DC  C03B  F037         	movff	___lwdiv@quotient,?___lwdiv
  1883   0014E0  C03C  F038         	movff	___lwdiv@quotient+1,?___lwdiv+1
  1884   0014E4  0012               	return		;funcret
  1885   0014E6                     __end_of___lwdiv:
  1886                           	callstack 0
  1887                           
  1888 ;; *************** function _SYSTEM_Initialize *****************
  1889 ;; Defined at:
  1890 ;;		line 50 in file "mcc_generated_files/mcc.c"
  1891 ;; Parameters:    Size  Location     Type
  1892 ;;		None
  1893 ;; Auto vars:     Size  Location     Type
  1894 ;;		None
  1895 ;; Return value:  Size  Location     Type
  1896 ;;                  1    wreg      void 
  1897 ;; Registers used:
  1898 ;;		wreg, status,2, status,0, cstack
  1899 ;; Tracked objects:
  1900 ;;		On entry : 0/0
  1901 ;;		On exit  : 0/0
  1902 ;;		Unchanged: 0/0
  1903 ;; Data sizes:     COMRAM   BANK0   BANK1   BANK2   BANK3   BANK4   BANK5   BANK6   BANK7   BANK8   BANK9  BANK10  BANK1
      +1  BANK12  BANK13  BANK14
  1904 ;;      Params:         0       0       0       0       0       0       0       0       0       0       0       0       
      +0       0       0       0
  1905 ;;      Locals:         0       0       0       0       0       0       0       0       0       0       0       0       
      +0       0       0       0
  1906 ;;      Temps:          0       0       0       0       0       0       0       0       0       0       0       0       
      +0       0       0       0
  1907 ;;      Totals:         0       0       0       0       0       0       0       0       0       0       0       0       
      +0       0       0       0
  1908 ;;Total ram usage:        0 bytes
  1909 ;; Hardware stack levels used: 1
  1910 ;; Hardware stack levels required when called: 5
  1911 ;; This function calls:
  1912 ;;		_CCP2_Initialize
  1913 ;;		_EUSART1_Initialize
  1914 ;;		_INTERRUPT_Initialize
  1915 ;;		_OSCILLATOR_Initialize
  1916 ;;		_PIN_MANAGER_Initialize
  1917 ;;		_TMR1_Initialize
  1918 ;; This function is called by:
  1919 ;;		_main
  1920 ;; This function uses a non-reentrant model
  1921 ;;
  1922                           
  1923                           	psect	text13
  1924   0016C8                     __ptext13:
  1925                           	callstack 0
  1926   0016C8                     _SYSTEM_Initialize:
  1927                           	callstack 25
  1928   0016C8                     
  1929                           ;mcc_generated_files/mcc.c: 53:     INTERRUPT_Initialize();
  1930   0016C8  ECAF  F00B         	call	_INTERRUPT_Initialize	;wreg free
  1931   0016CC                     
  1932                           ;mcc_generated_files/mcc.c: 54:     PIN_MANAGER_Initialize();
  1933   0016CC  EC1F  F00B         	call	_PIN_MANAGER_Initialize	;wreg free
  1934   0016D0                     
  1935                           ;mcc_generated_files/mcc.c: 55:     OSCILLATOR_Initialize();
  1936   0016D0  EC86  F00B         	call	_OSCILLATOR_Initialize	;wreg free
  1937   0016D4                     
  1938                           ;mcc_generated_files/mcc.c: 56:     CCP2_Initialize();
  1939   0016D4  EC46  F00B         	call	_CCP2_Initialize	;wreg free
  1940   0016D8                     
  1941                           ;mcc_generated_files/mcc.c: 57:     TMR1_Initialize();
  1942   0016D8  EC33  F00B         	call	_TMR1_Initialize	;wreg free
  1943   0016DC                     
  1944                           ;mcc_generated_files/mcc.c: 58:     EUSART1_Initialize();
  1945   0016DC  ECB9  F00A         	call	_EUSART1_Initialize	;wreg free
  1946   0016E0  0012               	return		;funcret
  1947   0016E2                     __end_of_SYSTEM_Initialize:
  1948                           	callstack 0
  1949                           
  1950 ;; *************** function _TMR1_Initialize *****************
  1951 ;; Defined at:
  1952 ;;		line 63 in file "mcc_generated_files/tmr1.c"
  1953 ;; Parameters:    Size  Location     Type
  1954 ;;		None
  1955 ;; Auto vars:     Size  Location     Type
  1956 ;;		None
  1957 ;; Return value:  Size  Location     Type
  1958 ;;                  1    wreg      void 
  1959 ;; Registers used:
  1960 ;;		wreg, status,2, status,0
  1961 ;; Tracked objects:
  1962 ;;		On entry : 0/0
  1963 ;;		On exit  : 0/0
  1964 ;;		Unchanged: 0/0
  1965 ;; Data sizes:     COMRAM   BANK0   BANK1   BANK2   BANK3   BANK4   BANK5   BANK6   BANK7   BANK8   BANK9  BANK10  BANK1
      +1  BANK12  BANK13  BANK14
  1966 ;;      Params:         0       0       0       0       0       0       0       0       0       0       0       0       
      +0       0       0       0
  1967 ;;      Locals:         0       0       0       0       0       0       0       0       0       0       0       0       
      +0       0       0       0
  1968 ;;      Temps:          2       0       0       0       0       0       0       0       0       0       0       0       
      +0       0       0       0
  1969 ;;      Totals:         2       0       0       0       0       0       0       0       0       0       0       0       
      +0       0       0       0
  1970 ;;Total ram usage:        2 bytes
  1971 ;; Hardware stack levels used: 1
  1972 ;; Hardware stack levels required when called: 3
  1973 ;; This function calls:
  1974 ;;		Nothing
  1975 ;; This function is called by:
  1976 ;;		_SYSTEM_Initialize
  1977 ;; This function uses a non-reentrant model
  1978 ;;
  1979                           
  1980                           	psect	text14
  1981   001666                     __ptext14:
  1982                           	callstack 0
  1983   001666                     _TMR1_Initialize:
  1984                           	callstack 26
  1985   001666                     
  1986                           ;mcc_generated_files/tmr1.c: 68:     T1GCON = 0x00;
  1987   001666  0E00               	movlw	0
  1988   001668  6EAA               	movwf	170,c	;volatile
  1989   00166A                     
  1990                           ;mcc_generated_files/tmr1.c: 71:     TMR1H = 0xFF;
  1991   00166A  68CF               	setf	207,c	;volatile
  1992   00166C                     
  1993                           ;mcc_generated_files/tmr1.c: 74:     TMR1L = 0xFF;
  1994   00166C  68CE               	setf	206,c	;volatile
  1995   00166E                     
  1996                           ;mcc_generated_files/tmr1.c: 77:     PIR1bits.TMR1IF = 0;
  1997   00166E  909E               	bcf	158,0,c	;volatile
  1998   001670                     
  1999                           ;mcc_generated_files/tmr1.c: 80:     timer1ReloadVal=(uint16_t)((TMR1H << 8) | TMR1L);
  2000   001670  50CE               	movf	206,w,c	;volatile
  2001   001672  CFCF F037          	movff	4047,??_TMR1_Initialize	;volatile
  2002   001676  6A38               	clrf	(??_TMR1_Initialize+1)^0,c
  2003   001678  C037  F038         	movff	??_TMR1_Initialize,??_TMR1_Initialize+1
  2004   00167C  6A37               	clrf	??_TMR1_Initialize^0,c
  2005   00167E  1037               	iorwf	??_TMR1_Initialize^0,w,c
  2006   001680  6E2D               	movwf	_timer1ReloadVal^0,c	;volatile
  2007   001682  5038               	movf	(??_TMR1_Initialize+1)^0,w,c
  2008   001684  6E2E               	movwf	(_timer1ReloadVal+1)^0,c	;volatile
  2009   001686                     
  2010                           ;mcc_generated_files/tmr1.c: 83:     T1CON = 0x01;
  2011   001686  0E01               	movlw	1
  2012   001688  6ECD               	movwf	205,c	;volatile
  2013   00168A  0012               	return		;funcret
  2014   00168C                     __end_of_TMR1_Initialize:
  2015                           	callstack 0
  2016                           
  2017 ;; *************** function _PIN_MANAGER_Initialize *****************
  2018 ;; Defined at:
  2019 ;;		line 55 in file "mcc_generated_files/pin_manager.c"
  2020 ;; Parameters:    Size  Location     Type
  2021 ;;		None
  2022 ;; Auto vars:     Size  Location     Type
  2023 ;;		None
  2024 ;; Return value:  Size  Location     Type
  2025 ;;                  1    wreg      void 
  2026 ;; Registers used:
  2027 ;;		wreg, status,2
  2028 ;; Tracked objects:
  2029 ;;		On entry : 0/0
  2030 ;;		On exit  : 0/0
  2031 ;;		Unchanged: 0/0
  2032 ;; Data sizes:     COMRAM   BANK0   BANK1   BANK2   BANK3   BANK4   BANK5   BANK6   BANK7   BANK8   BANK9  BANK10  BANK1
      +1  BANK12  BANK13  BANK14
  2033 ;;      Params:         0       0       0       0       0       0       0       0       0       0       0       0       
      +0       0       0       0
  2034 ;;      Locals:         0       0       0       0       0       0       0       0       0       0       0       0       
      +0       0       0       0
  2035 ;;      Temps:          0       0       0       0       0       0       0       0       0       0       0       0       
      +0       0       0       0
  2036 ;;      Totals:         0       0       0       0       0       0       0       0       0       0       0       0       
      +0       0       0       0
  2037 ;;Total ram usage:        0 bytes
  2038 ;; Hardware stack levels used: 1
  2039 ;; Hardware stack levels required when called: 3
  2040 ;; This function calls:
  2041 ;;		Nothing
  2042 ;; This function is called by:
  2043 ;;		_SYSTEM_Initialize
  2044 ;; This function uses a non-reentrant model
  2045 ;;
  2046                           
  2047                           	psect	text15
  2048   00163E                     __ptext15:
  2049                           	callstack 0
  2050   00163E                     _PIN_MANAGER_Initialize:
  2051                           	callstack 26
  2052   00163E                     
  2053                           ;mcc_generated_files/pin_manager.c: 60:     LATA = 0x00;
  2054   00163E  0E00               	movlw	0
  2055   001640  6E89               	movwf	137,c	;volatile
  2056                           
  2057                           ;mcc_generated_files/pin_manager.c: 61:     LATB = 0x00;
  2058   001642  0E00               	movlw	0
  2059   001644  6E8A               	movwf	138,c	;volatile
  2060                           
  2061                           ;mcc_generated_files/pin_manager.c: 62:     LATC = 0x00;
  2062   001646  0E00               	movlw	0
  2063   001648  6E8B               	movwf	139,c	;volatile
  2064                           
  2065                           ;mcc_generated_files/pin_manager.c: 67:     TRISA = 0xCF;
  2066   00164A  0ECF               	movlw	207
  2067   00164C  6E92               	movwf	146,c	;volatile
  2068   00164E                     
  2069                           ;mcc_generated_files/pin_manager.c: 68:     TRISB = 0xFF;
  2070   00164E  6893               	setf	147,c	;volatile
  2071                           
  2072                           ;mcc_generated_files/pin_manager.c: 69:     TRISC = 0xBF;
  2073   001650  0EBF               	movlw	191
  2074   001652  6E94               	movwf	148,c	;volatile
  2075                           
  2076                           ;mcc_generated_files/pin_manager.c: 74:     ANCON0 = 0x1F;
  2077   001654  0E1F               	movlw	31
  2078   001656  010F               	movlb	15	; () banked
  2079   001658  6F5D               	movwf	93,b	;volatile
  2080                           
  2081                           ;mcc_generated_files/pin_manager.c: 75:     ANCON1 = 0x03;
  2082   00165A  0E03               	movlw	3
  2083   00165C  6F5C               	movwf	92,b	;volatile
  2084                           
  2085                           ;mcc_generated_files/pin_manager.c: 80:     WPUB = 0x00;
  2086   00165E  0E00               	movlw	0
  2087   001660  6F5B               	movwf	91,b	;volatile
  2088   001662                     
  2089                           ; BSR set to: 15
  2090                           ;mcc_generated_files/pin_manager.c: 81:     INTCON2bits.nRBPU = 1;
  2091   001662  8EF1               	bsf	241,7,c	;volatile
  2092   001664                     
  2093                           ; BSR set to: 15
  2094   001664  0012               	return		;funcret
  2095   001666                     __end_of_PIN_MANAGER_Initialize:
  2096                           	callstack 0
  2097                           
  2098 ;; *************** function _OSCILLATOR_Initialize *****************
  2099 ;; Defined at:
  2100 ;;		line 61 in file "mcc_generated_files/mcc.c"
  2101 ;; Parameters:    Size  Location     Type
  2102 ;;		None
  2103 ;; Auto vars:     Size  Location     Type
  2104 ;;		None
  2105 ;; Return value:  Size  Location     Type
  2106 ;;                  1    wreg      void 
  2107 ;; Registers used:
  2108 ;;		wreg, status,2
  2109 ;; Tracked objects:
  2110 ;;		On entry : 0/0
  2111 ;;		On exit  : 0/0
  2112 ;;		Unchanged: 0/0
  2113 ;; Data sizes:     COMRAM   BANK0   BANK1   BANK2   BANK3   BANK4   BANK5   BANK6   BANK7   BANK8   BANK9  BANK10  BANK1
      +1  BANK12  BANK13  BANK14
  2114 ;;      Params:         0       0       0       0       0       0       0       0       0       0       0       0       
      +0       0       0       0
  2115 ;;      Locals:         0       0       0       0       0       0       0       0       0       0       0       0       
      +0       0       0       0
  2116 ;;      Temps:          0       0       0       0       0       0       0       0       0       0       0       0       
      +0       0       0       0
  2117 ;;      Totals:         0       0       0       0       0       0       0       0       0       0       0       0       
      +0       0       0       0
  2118 ;;Total ram usage:        0 bytes
  2119 ;; Hardware stack levels used: 1
  2120 ;; Hardware stack levels required when called: 3
  2121 ;; This function calls:
  2122 ;;		Nothing
  2123 ;; This function is called by:
  2124 ;;		_SYSTEM_Initialize
  2125 ;; This function uses a non-reentrant model
  2126 ;;
  2127                           
  2128                           	psect	text16
  2129   00170C                     __ptext16:
  2130                           	callstack 0
  2131   00170C                     _OSCILLATOR_Initialize:
  2132                           	callstack 26
  2133   00170C                     
  2134                           ;mcc_generated_files/mcc.c: 64:     OSCCON = 0x60;
  2135   00170C  0E60               	movlw	96
  2136   00170E  6ED3               	movwf	211,c	;volatile
  2137                           
  2138                           ;mcc_generated_files/mcc.c: 66:     OSCCON2 = 0x00;
  2139   001710  0E00               	movlw	0
  2140   001712  6ED2               	movwf	210,c	;volatile
  2141                           
  2142                           ;mcc_generated_files/mcc.c: 68:     OSCTUNE = 0x00;
  2143   001714  0E00               	movlw	0
  2144   001716  6E9B               	movwf	155,c	;volatile
  2145                           
  2146                           ;mcc_generated_files/mcc.c: 70:     REFOCON = 0x00;
  2147   001718  0E00               	movlw	0
  2148   00171A  6E9A               	movwf	154,c	;volatile
  2149   00171C  0012               	return		;funcret
  2150   00171E                     __end_of_OSCILLATOR_Initialize:
  2151                           	callstack 0
  2152                           
  2153 ;; *************** function _INTERRUPT_Initialize *****************
  2154 ;; Defined at:
  2155 ;;		line 52 in file "mcc_generated_files/interrupt_manager.c"
  2156 ;; Parameters:    Size  Location     Type
  2157 ;;		None
  2158 ;; Auto vars:     Size  Location     Type
  2159 ;;		None
  2160 ;; Return value:  Size  Location     Type
  2161 ;;                  1    wreg      void 
  2162 ;; Registers used:
  2163 ;;		None
  2164 ;; Tracked objects:
  2165 ;;		On entry : 0/0
  2166 ;;		On exit  : 0/0
  2167 ;;		Unchanged: 0/0
  2168 ;; Data sizes:     COMRAM   BANK0   BANK1   BANK2   BANK3   BANK4   BANK5   BANK6   BANK7   BANK8   BANK9  BANK10  BANK1
      +1  BANK12  BANK13  BANK14
  2169 ;;      Params:         0       0       0       0       0       0       0       0       0       0       0       0       
      +0       0       0       0
  2170 ;;      Locals:         0       0       0       0       0       0       0       0       0       0       0       0       
      +0       0       0       0
  2171 ;;      Temps:          0       0       0       0       0       0       0       0       0       0       0       0       
      +0       0       0       0
  2172 ;;      Totals:         0       0       0       0       0       0       0       0       0       0       0       0       
      +0       0       0       0
  2173 ;;Total ram usage:        0 bytes
  2174 ;; Hardware stack levels used: 1
  2175 ;; Hardware stack levels required when called: 3
  2176 ;; This function calls:
  2177 ;;		Nothing
  2178 ;; This function is called by:
  2179 ;;		_SYSTEM_Initialize
  2180 ;; This function uses a non-reentrant model
  2181 ;;
  2182                           
  2183                           	psect	text17
  2184   00175E                     __ptext17:
  2185                           	callstack 0
  2186   00175E                     _INTERRUPT_Initialize:
  2187                           	callstack 26
  2188   00175E                     
  2189                           ;mcc_generated_files/interrupt_manager.c: 55:     RCONbits.IPEN = 0;
  2190   00175E  9ED0               	bcf	208,7,c	;volatile
  2191   001760  0012               	return		;funcret
  2192   001762                     __end_of_INTERRUPT_Initialize:
  2193                           	callstack 0
  2194                           
  2195 ;; *************** function _EUSART1_Initialize *****************
  2196 ;; Defined at:
  2197 ;;		line 66 in file "mcc_generated_files/eusart1.c"
  2198 ;; Parameters:    Size  Location     Type
  2199 ;;		None
  2200 ;; Auto vars:     Size  Location     Type
  2201 ;;		None
  2202 ;; Return value:  Size  Location     Type
  2203 ;;                  1    wreg      void 
  2204 ;; Registers used:
  2205 ;;		wreg, status,2, status,0, cstack
  2206 ;; Tracked objects:
  2207 ;;		On entry : 0/0
  2208 ;;		On exit  : 0/0
  2209 ;;		Unchanged: 0/0
  2210 ;; Data sizes:     COMRAM   BANK0   BANK1   BANK2   BANK3   BANK4   BANK5   BANK6   BANK7   BANK8   BANK9  BANK10  BANK1
      +1  BANK12  BANK13  BANK14
  2211 ;;      Params:         0       0       0       0       0       0       0       0       0       0       0       0       
      +0       0       0       0
  2212 ;;      Locals:         0       0       0       0       0       0       0       0       0       0       0       0       
      +0       0       0       0
  2213 ;;      Temps:          0       0       0       0       0       0       0       0       0       0       0       0       
      +0       0       0       0
  2214 ;;      Totals:         0       0       0       0       0       0       0       0       0       0       0       0       
      +0       0       0       0
  2215 ;;Total ram usage:        0 bytes
  2216 ;; Hardware stack levels used: 1
  2217 ;; Hardware stack levels required when called: 4
  2218 ;; This function calls:
  2219 ;;		_EUSART1_SetErrorHandler
  2220 ;;		_EUSART1_SetFramingErrorHandler
  2221 ;;		_EUSART1_SetOverrunErrorHandler
  2222 ;; This function is called by:
  2223 ;;		_SYSTEM_Initialize
  2224 ;; This function uses a non-reentrant model
  2225 ;;
  2226                           
  2227                           	psect	text18
  2228   001572                     __ptext18:
  2229                           	callstack 0
  2230   001572                     _EUSART1_Initialize:
  2231                           	callstack 25
  2232   001572                     
  2233                           ;mcc_generated_files/eusart1.c: 71:     BAUDCON1 = 0x08;
  2234   001572  0E08               	movlw	8
  2235   001574  6EA7               	movwf	167,c	;volatile
  2236                           
  2237                           ;mcc_generated_files/eusart1.c: 74:     RCSTA1 = 0x90;
  2238   001576  0E90               	movlw	144
  2239   001578  6EAB               	movwf	171,c	;volatile
  2240                           
  2241                           ;mcc_generated_files/eusart1.c: 77:     TXSTA1 = 0x24;
  2242   00157A  0E24               	movlw	36
  2243   00157C  6EAC               	movwf	172,c	;volatile
  2244                           
  2245                           ;mcc_generated_files/eusart1.c: 80:     SPBRG1 = 0x08;
  2246   00157E  0E08               	movlw	8
  2247   001580  6EAF               	movwf	175,c	;volatile
  2248                           
  2249                           ;mcc_generated_files/eusart1.c: 83:     SPBRGH1 = 0x02;
  2250   001582  0E02               	movlw	2
  2251   001584  6E7D               	movwf	125,c	;volatile
  2252   001586                     
  2253                           ;mcc_generated_files/eusart1.c: 86:     EUSART1_SetFramingErrorHandler(EUSART1_DefaultFr
      +                          amingErrorHandler);
  2254   001586  0E00               	movlw	0
  2255   001588  6E37               	movwf	EUSART1_SetFramingErrorHandler@interruptHandler^0,c
  2256   00158A  0E00               	movlw	0
  2257   00158C  6E38               	movwf	(EUSART1_SetFramingErrorHandler@interruptHandler+1)^0,c
  2258   00158E  ECA0  F00B         	call	_EUSART1_SetFramingErrorHandler	;wreg free
  2259   001592                     
  2260                           ;mcc_generated_files/eusart1.c: 87:     EUSART1_SetOverrunErrorHandler(EUSART1_DefaultOv
      +                          errunErrorHandler);
  2261   001592  0E00               	movlw	0
  2262   001594  6E37               	movwf	EUSART1_SetOverrunErrorHandler@interruptHandler^0,c
  2263   001596  0E00               	movlw	0
  2264   001598  6E38               	movwf	(EUSART1_SetOverrunErrorHandler@interruptHandler+1)^0,c
  2265   00159A  EC9B  F00B         	call	_EUSART1_SetOverrunErrorHandler	;wreg free
  2266   00159E                     
  2267                           ;mcc_generated_files/eusart1.c: 88:     EUSART1_SetErrorHandler(EUSART1_DefaultErrorHand
      +                          ler);
  2268   00159E  0E00               	movlw	0
  2269   0015A0  6E37               	movwf	EUSART1_SetErrorHandler@interruptHandler^0,c
  2270   0015A2  0E00               	movlw	0
  2271   0015A4  6E38               	movwf	(EUSART1_SetErrorHandler@interruptHandler+1)^0,c
  2272   0015A6  ECA5  F00B         	call	_EUSART1_SetErrorHandler	;wreg free
  2273   0015AA                     
  2274                           ;mcc_generated_files/eusart1.c: 90:     eusart1RxLastError.status = 0;
  2275   0015AA  0E00               	movlw	0
  2276   0015AC  6E30               	movwf	_eusart1RxLastError^0,c	;volatile
  2277   0015AE  0012               	return		;funcret
  2278   0015B0                     __end_of_EUSART1_Initialize:
  2279                           	callstack 0
  2280                           
  2281 ;; *************** function _EUSART1_SetOverrunErrorHandler *****************
  2282 ;; Defined at:
  2283 ;;		line 166 in file "mcc_generated_files/eusart1.c"
  2284 ;; Parameters:    Size  Location     Type
  2285 ;;  interruptHan    2    6[COMRAM] PTR FTN()void 
  2286 ;;		 -> EUSART1_DefaultOverrunErrorHandler(1), 
  2287 ;; Auto vars:     Size  Location     Type
  2288 ;;		None
  2289 ;; Return value:  Size  Location     Type
  2290 ;;                  1    wreg      void 
  2291 ;; Registers used:
  2292 ;;		wreg, status,2, status,0
  2293 ;; Tracked objects:
  2294 ;;		On entry : 0/0
  2295 ;;		On exit  : 0/0
  2296 ;;		Unchanged: 0/0
  2297 ;; Data sizes:     COMRAM   BANK0   BANK1   BANK2   BANK3   BANK4   BANK5   BANK6   BANK7   BANK8   BANK9  BANK10  BANK1
      +1  BANK12  BANK13  BANK14
  2298 ;;      Params:         2       0       0       0       0       0       0       0       0       0       0       0       
      +0       0       0       0
  2299 ;;      Locals:         0       0       0       0       0       0       0       0       0       0       0       0       
      +0       0       0       0
  2300 ;;      Temps:          0       0       0       0       0       0       0       0       0       0       0       0       
      +0       0       0       0
  2301 ;;      Totals:         2       0       0       0       0       0       0       0       0       0       0       0       
      +0       0       0       0
  2302 ;;Total ram usage:        2 bytes
  2303 ;; Hardware stack levels used: 1
  2304 ;; Hardware stack levels required when called: 3
  2305 ;; This function calls:
  2306 ;;		Nothing
  2307 ;; This function is called by:
  2308 ;;		_EUSART1_Initialize
  2309 ;; This function uses a non-reentrant model
  2310 ;;
  2311                           
  2312                           	psect	text19
  2313   001736                     __ptext19:
  2314                           	callstack 0
  2315   001736                     _EUSART1_SetOverrunErrorHandler:
  2316                           	callstack 25
  2317   001736                     
  2318                           ;mcc_generated_files/eusart1.c: 167:     EUSART1_OverrunErrorHandler = interruptHandler;
  2319   001736  C037  F067         	movff	EUSART1_SetOverrunErrorHandler@interruptHandler,_EUSART1_OverrunErrorHandler
  2320   00173A  C038  F068         	movff	EUSART1_SetOverrunErrorHandler@interruptHandler+1,_EUSART1_OverrunErrorHandler+1
  2321   00173E  0012               	return		;funcret
  2322   001740                     __end_of_EUSART1_SetOverrunErrorHandler:
  2323                           	callstack 0
  2324                           
  2325 ;; *************** function _EUSART1_SetFramingErrorHandler *****************
  2326 ;; Defined at:
  2327 ;;		line 162 in file "mcc_generated_files/eusart1.c"
  2328 ;; Parameters:    Size  Location     Type
  2329 ;;  interruptHan    2    6[COMRAM] PTR FTN()void 
  2330 ;;		 -> EUSART1_DefaultFramingErrorHandler(1), 
  2331 ;; Auto vars:     Size  Location     Type
  2332 ;;		None
  2333 ;; Return value:  Size  Location     Type
  2334 ;;                  1    wreg      void 
  2335 ;; Registers used:
  2336 ;;		wreg, status,2, status,0
  2337 ;; Tracked objects:
  2338 ;;		On entry : 0/0
  2339 ;;		On exit  : 0/0
  2340 ;;		Unchanged: 0/0
  2341 ;; Data sizes:     COMRAM   BANK0   BANK1   BANK2   BANK3   BANK4   BANK5   BANK6   BANK7   BANK8   BANK9  BANK10  BANK1
      +1  BANK12  BANK13  BANK14
  2342 ;;      Params:         2       0       0       0       0       0       0       0       0       0       0       0       
      +0       0       0       0
  2343 ;;      Locals:         0       0       0       0       0       0       0       0       0       0       0       0       
      +0       0       0       0
  2344 ;;      Temps:          0       0       0       0       0       0       0       0       0       0       0       0       
      +0       0       0       0
  2345 ;;      Totals:         2       0       0       0       0       0       0       0       0       0       0       0       
      +0       0       0       0
  2346 ;;Total ram usage:        2 bytes
  2347 ;; Hardware stack levels used: 1
  2348 ;; Hardware stack levels required when called: 3
  2349 ;; This function calls:
  2350 ;;		Nothing
  2351 ;; This function is called by:
  2352 ;;		_EUSART1_Initialize
  2353 ;; This function uses a non-reentrant model
  2354 ;;
  2355                           
  2356                           	psect	text20
  2357   001740                     __ptext20:
  2358                           	callstack 0
  2359   001740                     _EUSART1_SetFramingErrorHandler:
  2360                           	callstack 25
  2361   001740                     
  2362                           ;mcc_generated_files/eusart1.c: 163:     EUSART1_FramingErrorHandler = interruptHandler;
  2363   001740  C037  F054         	movff	EUSART1_SetFramingErrorHandler@interruptHandler,_EUSART1_FramingErrorHandler
  2364   001744  C038  F055         	movff	EUSART1_SetFramingErrorHandler@interruptHandler+1,_EUSART1_FramingErrorHandler+1
  2365   001748  0012               	return		;funcret
  2366   00174A                     __end_of_EUSART1_SetFramingErrorHandler:
  2367                           	callstack 0
  2368                           
  2369 ;; *************** function _EUSART1_SetErrorHandler *****************
  2370 ;; Defined at:
  2371 ;;		line 170 in file "mcc_generated_files/eusart1.c"
  2372 ;; Parameters:    Size  Location     Type
  2373 ;;  interruptHan    2    6[COMRAM] PTR FTN()void 
  2374 ;;		 -> EUSART1_DefaultErrorHandler(1), 
  2375 ;; Auto vars:     Size  Location     Type
  2376 ;;		None
  2377 ;; Return value:  Size  Location     Type
  2378 ;;                  1    wreg      void 
  2379 ;; Registers used:
  2380 ;;		wreg, status,2, status,0
  2381 ;; Tracked objects:
  2382 ;;		On entry : 0/0
  2383 ;;		On exit  : 0/0
  2384 ;;		Unchanged: 0/0
  2385 ;; Data sizes:     COMRAM   BANK0   BANK1   BANK2   BANK3   BANK4   BANK5   BANK6   BANK7   BANK8   BANK9  BANK10  BANK1
      +1  BANK12  BANK13  BANK14
  2386 ;;      Params:         2       0       0       0       0       0       0       0       0       0       0       0       
      +0       0       0       0
  2387 ;;      Locals:         0       0       0       0       0       0       0       0       0       0       0       0       
      +0       0       0       0
  2388 ;;      Temps:          0       0       0       0       0       0       0       0       0       0       0       0       
      +0       0       0       0
  2389 ;;      Totals:         2       0       0       0       0       0       0       0       0       0       0       0       
      +0       0       0       0
  2390 ;;Total ram usage:        2 bytes
  2391 ;; Hardware stack levels used: 1
  2392 ;; Hardware stack levels required when called: 3
  2393 ;; This function calls:
  2394 ;;		Nothing
  2395 ;; This function is called by:
  2396 ;;		_EUSART1_Initialize
  2397 ;; This function uses a non-reentrant model
  2398 ;;
  2399                           
  2400                           	psect	text21
  2401   00174A                     __ptext21:
  2402                           	callstack 0
  2403   00174A                     _EUSART1_SetErrorHandler:
  2404                           	callstack 25
  2405   00174A                     
  2406                           ;mcc_generated_files/eusart1.c: 171:     EUSART1_ErrorHandler = interruptHandler;
  2407   00174A  C037  F065         	movff	EUSART1_SetErrorHandler@interruptHandler,_EUSART1_ErrorHandler
  2408   00174E  C038  F066         	movff	EUSART1_SetErrorHandler@interruptHandler+1,_EUSART1_ErrorHandler+1
  2409   001752  0012               	return		;funcret
  2410   001754                     __end_of_EUSART1_SetErrorHandler:
  2411                           	callstack 0
  2412                           
  2413 ;; *************** function _CCP2_Initialize *****************
  2414 ;; Defined at:
  2415 ;;		line 65 in file "mcc_generated_files/ccp2.c"
  2416 ;; Parameters:    Size  Location     Type
  2417 ;;		None
  2418 ;; Auto vars:     Size  Location     Type
  2419 ;;		None
  2420 ;; Return value:  Size  Location     Type
  2421 ;;                  1    wreg      void 
  2422 ;; Registers used:
  2423 ;;		wreg, status,2, status,0, cstack
  2424 ;; Tracked objects:
  2425 ;;		On entry : 0/0
  2426 ;;		On exit  : 0/0
  2427 ;;		Unchanged: 0/0
  2428 ;; Data sizes:     COMRAM   BANK0   BANK1   BANK2   BANK3   BANK4   BANK5   BANK6   BANK7   BANK8   BANK9  BANK10  BANK1
      +1  BANK12  BANK13  BANK14
  2429 ;;      Params:         0       0       0       0       0       0       0       0       0       0       0       0       
      +0       0       0       0
  2430 ;;      Locals:         0       0       0       0       0       0       0       0       0       0       0       0       
      +0       0       0       0
  2431 ;;      Temps:          0       0       0       0       0       0       0       0       0       0       0       0       
      +0       0       0       0
  2432 ;;      Totals:         0       0       0       0       0       0       0       0       0       0       0       0       
      +0       0       0       0
  2433 ;;Total ram usage:        0 bytes
  2434 ;; Hardware stack levels used: 1
  2435 ;; Hardware stack levels required when called: 4
  2436 ;; This function calls:
  2437 ;;		_CCP2_SetCallBack
  2438 ;; This function is called by:
  2439 ;;		_SYSTEM_Initialize
  2440 ;; This function uses a non-reentrant model
  2441 ;;
  2442                           
  2443                           	psect	text22
  2444   00168C                     __ptext22:
  2445                           	callstack 0
  2446   00168C                     _CCP2_Initialize:
  2447                           	callstack 25
  2448   00168C                     
  2449                           ;mcc_generated_files/ccp2.c: 70:  CCP2CON = 0x05;
  2450   00168C  0E05               	movlw	5
  2451   00168E  010F               	movlb	15	; () banked
  2452   001690  6F50               	movwf	80,b	;volatile
  2453                           
  2454                           ;mcc_generated_files/ccp2.c: 73:  CCPR2L = 0x00;
  2455   001692  0E00               	movlw	0
  2456   001694  6F51               	movwf	81,b	;volatile
  2457                           
  2458                           ;mcc_generated_files/ccp2.c: 76:  CCPR2H = 0x00;
  2459   001696  0E00               	movlw	0
  2460   001698  6F52               	movwf	82,b	;volatile
  2461   00169A                     
  2462                           ; BSR set to: 15
  2463                           ;mcc_generated_files/ccp2.c: 79:     CCP2_SetCallBack(CCP2_DefaultCallBack);
  2464   00169A  0E62               	movlw	low _CCP2_DefaultCallBack
  2465   00169C  6E37               	movwf	CCP2_SetCallBack@customCallBack^0,c
  2466   00169E  0E17               	movlw	high _CCP2_DefaultCallBack
  2467   0016A0  6E38               	movwf	(CCP2_SetCallBack@customCallBack+1)^0,c
  2468   0016A2  ECAA  F00B         	call	_CCP2_SetCallBack	;wreg free
  2469   0016A6                     
  2470                           ;mcc_generated_files/ccp2.c: 82:  CCPTMRSbits.C2TSEL = 0x0;
  2471   0016A6  9299               	bcf	153,1,c	;volatile
  2472   0016A8                     
  2473                           ;mcc_generated_files/ccp2.c: 85:     PIR3bits.CCP2IF = 0;
  2474   0016A8  94A4               	bcf	164,2,c	;volatile
  2475   0016AA                     
  2476                           ;mcc_generated_files/ccp2.c: 88:     PIE3bits.CCP2IE = 1;
  2477   0016AA  84A3               	bsf	163,2,c	;volatile
  2478   0016AC  0012               	return		;funcret
  2479   0016AE                     __end_of_CCP2_Initialize:
  2480                           	callstack 0
  2481                           
  2482 ;; *************** function _CCP2_SetCallBack *****************
  2483 ;; Defined at:
  2484 ;;		line 106 in file "mcc_generated_files/ccp2.c"
  2485 ;; Parameters:    Size  Location     Type
  2486 ;;  customCallBa    2    6[COMRAM] PTR FTN(unsigned short ,
  2487 ;;		 -> Capture_CallBack(1), CCP2_DefaultCallBack(1), 
  2488 ;; Auto vars:     Size  Location     Type
  2489 ;;		None
  2490 ;; Return value:  Size  Location     Type
  2491 ;;                  1    wreg      void 
  2492 ;; Registers used:
  2493 ;;		wreg, status,2, status,0
  2494 ;; Tracked objects:
  2495 ;;		On entry : 0/0
  2496 ;;		On exit  : 0/0
  2497 ;;		Unchanged: 0/0
  2498 ;; Data sizes:     COMRAM   BANK0   BANK1   BANK2   BANK3   BANK4   BANK5   BANK6   BANK7   BANK8   BANK9  BANK10  BANK1
      +1  BANK12  BANK13  BANK14
  2499 ;;      Params:         2       0       0       0       0       0       0       0       0       0       0       0       
      +0       0       0       0
  2500 ;;      Locals:         0       0       0       0       0       0       0       0       0       0       0       0       
      +0       0       0       0
  2501 ;;      Temps:          0       0       0       0       0       0       0       0       0       0       0       0       
      +0       0       0       0
  2502 ;;      Totals:         2       0       0       0       0       0       0       0       0       0       0       0       
      +0       0       0       0
  2503 ;;Total ram usage:        2 bytes
  2504 ;; Hardware stack levels used: 1
  2505 ;; Hardware stack levels required when called: 3
  2506 ;; This function calls:
  2507 ;;		Nothing
  2508 ;; This function is called by:
  2509 ;;		_CCP2_Initialize
  2510 ;;		_main
  2511 ;; This function uses a non-reentrant model
  2512 ;;
  2513                           
  2514                           	psect	text23
  2515   001754                     __ptext23:
  2516                           	callstack 0
  2517   001754                     _CCP2_SetCallBack:
  2518                           	callstack 25
  2519   001754                     
  2520                           ;mcc_generated_files/ccp2.c: 107:     CCP2_CallBack = customCallBack;
  2521   001754  C037  F056         	movff	CCP2_SetCallBack@customCallBack,_CCP2_CallBack
  2522   001758  C038  F057         	movff	CCP2_SetCallBack@customCallBack+1,_CCP2_CallBack+1
  2523   00175C  0012               	return		;funcret
  2524   00175E                     __end_of_CCP2_SetCallBack:
  2525                           	callstack 0
  2526                           
  2527 ;; *************** function _INTERRUPT_InterruptManager *****************
  2528 ;; Defined at:
  2529 ;;		line 58 in file "mcc_generated_files/interrupt_manager.c"
  2530 ;; Parameters:    Size  Location     Type
  2531 ;;		None
  2532 ;; Auto vars:     Size  Location     Type
  2533 ;;		None
  2534 ;; Return value:  Size  Location     Type
  2535 ;;                  1    wreg      void 
  2536 ;; Registers used:
  2537 ;;		wreg, status,2, status,0, pcl, pclath, pclatu, tosl, cstack
  2538 ;; Tracked objects:
  2539 ;;		On entry : 0/0
  2540 ;;		On exit  : 0/0
  2541 ;;		Unchanged: 0/0
  2542 ;; Data sizes:     COMRAM   BANK0   BANK1   BANK2   BANK3   BANK4   BANK5   BANK6   BANK7   BANK8   BANK9  BANK10  BANK1
      +1  BANK12  BANK13  BANK14
  2543 ;;      Params:         0       0       0       0       0       0       0       0       0       0       0       0       
      +0       0       0       0
  2544 ;;      Locals:         0       0       0       0       0       0       0       0       0       0       0       0       
      +0       0       0       0
  2545 ;;      Temps:          2       0       0       0       0       0       0       0       0       0       0       0       
      +0       0       0       0
  2546 ;;      Totals:         2       0       0       0       0       0       0       0       0       0       0       0       
      +0       0       0       0
  2547 ;;Total ram usage:        2 bytes
  2548 ;; Hardware stack levels used: 1
  2549 ;; Hardware stack levels required when called: 2
  2550 ;; This function calls:
  2551 ;;		_CCP2_CaptureISR
  2552 ;; This function is called by:
  2553 ;;		Interrupt level 2
  2554 ;; This function uses a non-reentrant model
  2555 ;;
  2556                           
  2557                           	psect	intcode
  2558   000008                     __pintcode:
  2559                           	callstack 0
  2560   000008                     _INTERRUPT_InterruptManager:
  2561                           	callstack 22
  2562                           
  2563                           ;incstack = 0
  2564   000008  8259               	bsf	int$flags,1,c	;set compiler interrupt flag (level 2)
  2565   00000A  CFFA F035          	movff	pclath,??_INTERRUPT_InterruptManager
  2566   00000E  CFFB F036          	movff	pclatu,??_INTERRUPT_InterruptManager+1
  2567   000012                     
  2568                           ;mcc_generated_files/interrupt_manager.c: 61:     if(INTCONbits.PEIE == 1)
  2569   000012  ACF2               	btfss	242,6,c	;volatile
  2570   000014  EF0E  F000         	goto	i2u75_41
  2571   000018  EF10  F000         	goto	i2u75_40
  2572   00001C                     i2u75_41:
  2573   00001C  EF20  F000         	goto	i2l121
  2574   000020                     i2u75_40:
  2575   000020                     
  2576                           ;mcc_generated_files/interrupt_manager.c: 62:     {;mcc_generated_files/interrupt_manage
      +                          r.c: 63:         if(PIE3bits.CCP2IE == 1 && PIR3bits.CCP2IF == 1)
  2577   000020  A4A3               	btfss	163,2,c	;volatile
  2578   000022  EF15  F000         	goto	i2u76_41
  2579   000026  EF17  F000         	goto	i2u76_40
  2580   00002A                     i2u76_41:
  2581   00002A  EF20  F000         	goto	i2l121
  2582   00002E                     i2u76_40:
  2583   00002E  A4A4               	btfss	164,2,c	;volatile
  2584   000030  EF1C  F000         	goto	i2u77_41
  2585   000034  EF1E  F000         	goto	i2u77_40
  2586   000038                     i2u77_41:
  2587   000038  EF20  F000         	goto	i2l121
  2588   00003C                     i2u77_40:
  2589   00003C                     
  2590                           ;mcc_generated_files/interrupt_manager.c: 64:         {;mcc_generated_files/interrupt_ma
      +                          nager.c: 65:             CCP2_CaptureISR();
  2591   00003C  ECF2  F00A         	call	_CCP2_CaptureISR	;wreg free
  2592   000040                     i2l121:
  2593   000040  C036  FFFB         	movff	??_INTERRUPT_InterruptManager+1,pclatu
  2594   000044  C035  FFFA         	movff	??_INTERRUPT_InterruptManager,pclath
  2595   000048  9259               	bcf	int$flags,1,c	;clear compiler interrupt flag (level 2)
  2596   00004A  0011               	retfie		f
  2597   00004C                     __end_of_INTERRUPT_InterruptManager:
  2598                           	callstack 0
  2599                           
  2600 ;; *************** function _CCP2_CaptureISR *****************
  2601 ;; Defined at:
  2602 ;;		line 91 in file "mcc_generated_files/ccp2.c"
  2603 ;; Parameters:    Size  Location     Type
  2604 ;;		None
  2605 ;; Auto vars:     Size  Location     Type
  2606 ;;  module          2    2[COMRAM] struct CCPR2Reg_tag
  2607 ;; Return value:  Size  Location     Type
  2608 ;;                  1    wreg      void 
  2609 ;; Registers used:
  2610 ;;		wreg, status,2, status,0, pcl, pclath, pclatu, tosl, cstack
  2611 ;; Tracked objects:
  2612 ;;		On entry : 0/0
  2613 ;;		On exit  : 0/0
  2614 ;;		Unchanged: 0/0
  2615 ;; Data sizes:     COMRAM   BANK0   BANK1   BANK2   BANK3   BANK4   BANK5   BANK6   BANK7   BANK8   BANK9  BANK10  BANK1
      +1  BANK12  BANK13  BANK14
  2616 ;;      Params:         0       0       0       0       0       0       0       0       0       0       0       0       
      +0       0       0       0
  2617 ;;      Locals:         2       0       0       0       0       0       0       0       0       0       0       0       
      +0       0       0       0
  2618 ;;      Temps:          0       0       0       0       0       0       0       0       0       0       0       0       
      +0       0       0       0
  2619 ;;      Totals:         2       0       0       0       0       0       0       0       0       0       0       0       
      +0       0       0       0
  2620 ;;Total ram usage:        2 bytes
  2621 ;; Hardware stack levels used: 1
  2622 ;; Hardware stack levels required when called: 1
  2623 ;; This function calls:
  2624 ;;		NULL
  2625 ;;		_CCP2_DefaultCallBack
  2626 ;;		_Capture_CallBack
  2627 ;; This function is called by:
  2628 ;;		_INTERRUPT_InterruptManager
  2629 ;; This function uses a non-reentrant model
  2630 ;;
  2631                           
  2632                           	psect	text25
  2633   0015E4                     __ptext25:
  2634                           	callstack 0
  2635   0015E4                     _CCP2_CaptureISR:
  2636                           	callstack 22
  2637   0015E4                     
  2638                           ;mcc_generated_files/ccp2.c: 93:     CCP2_PERIOD_REG_T module;;mcc_generated_files/ccp2.
      +                          c: 96:     PIR3bits.CCP2IF = 0;
  2639   0015E4  94A4               	bcf	164,2,c	;volatile
  2640                           
  2641                           ;mcc_generated_files/ccp2.c: 99:     module.ccpr2l = CCPR2L;
  2642   0015E6  CF51 F033          	movff	3921,CCP2_CaptureISR@module	;volatile
  2643                           
  2644                           ;mcc_generated_files/ccp2.c: 100:     module.ccpr2h = CCPR2H;
  2645   0015EA  CF52 F034          	movff	3922,CCP2_CaptureISR@module+1	;volatile
  2646   0015EE                     
  2647                           ;mcc_generated_files/ccp2.c: 103:     CCP2_CallBack(module.ccpr2_16Bit);
  2648   0015EE  C033  F031         	movff	CCP2_CaptureISR@module,Capture_CallBack@capturesValue
  2649   0015F2  C034  F032         	movff	CCP2_CaptureISR@module+1,Capture_CallBack@capturesValue+1
  2650   0015F6  D802               	call	i2u71_48
  2651   0015F8  EF08  F00B         	goto	i2u71_49
  2652   0015FC                     i2u71_48:
  2653   0015FC  0005               	push	
  2654   0015FE  6EFA               	movwf	pclath,c
  2655   001600  5056               	movf	_CCP2_CallBack^0,w,c
  2656   001602  6EFD               	movwf	tosl,c
  2657   001604  5057               	movf	(_CCP2_CallBack+1)^0,w,c
  2658   001606  6EFE               	movwf	tosh,c
  2659   001608  50F8               	movf	tblptru,w,c
  2660   00160A  6EFF               	movwf	tosu,c
  2661   00160C  50FA               	movf	pclath,w,c
  2662   00160E  0012               	return		;indir
  2663   001610                     i2u71_49:
  2664   001610  0012               	return		;funcret
  2665   001612                     __end_of_CCP2_CaptureISR:
  2666                           	callstack 0
  2667                           
  2668 ;; *************** function _CCP2_DefaultCallBack *****************
  2669 ;; Defined at:
  2670 ;;		line 60 in file "mcc_generated_files/ccp2.c"
  2671 ;; Parameters:    Size  Location     Type
  2672 ;;  capturedValu    2    0[COMRAM] unsigned short 
  2673 ;; Auto vars:     Size  Location     Type
  2674 ;;		None
  2675 ;; Return value:  Size  Location     Type
  2676 ;;                  1    wreg      void 
  2677 ;; Registers used:
  2678 ;;		None
  2679 ;; Tracked objects:
  2680 ;;		On entry : 0/0
  2681 ;;		On exit  : 0/0
  2682 ;;		Unchanged: 0/0
  2683 ;; Data sizes:     COMRAM   BANK0   BANK1   BANK2   BANK3   BANK4   BANK5   BANK6   BANK7   BANK8   BANK9  BANK10  BANK1
      +1  BANK12  BANK13  BANK14
  2684 ;;      Params:         2       0       0       0       0       0       0       0       0       0       0       0       
      +0       0       0       0
  2685 ;;      Locals:         0       0       0       0       0       0       0       0       0       0       0       0       
      +0       0       0       0
  2686 ;;      Temps:          0       0       0       0       0       0       0       0       0       0       0       0       
      +0       0       0       0
  2687 ;;      Totals:         2       0       0       0       0       0       0       0       0       0       0       0       
      +0       0       0       0
  2688 ;;Total ram usage:        2 bytes
  2689 ;; Hardware stack levels used: 1
  2690 ;; This function calls:
  2691 ;;		Nothing
  2692 ;; This function is called by:
  2693 ;;		_CCP2_Initialize
  2694 ;;		_CCP2_CaptureISR
  2695 ;; This function uses a non-reentrant model
  2696 ;;
  2697                           
  2698                           	psect	text26
  2699   001762                     __ptext26:
  2700                           	callstack 0
  2701   001762                     _CCP2_DefaultCallBack:
  2702                           	callstack 22
  2703   001762  0012               	return		;funcret
  2704   001764                     __end_of_CCP2_DefaultCallBack:
  2705                           	callstack 0
  2706                           
  2707 ;; *************** function _Capture_CallBack *****************
  2708 ;; Defined at:
  2709 ;;		line 100 in file "main.c"
  2710 ;; Parameters:    Size  Location     Type
  2711 ;;  capturesValu    2    0[COMRAM] unsigned short 
  2712 ;; Auto vars:     Size  Location     Type
  2713 ;;		None
  2714 ;; Return value:  Size  Location     Type
  2715 ;;                  1    wreg      void 
  2716 ;; Registers used:
  2717 ;;		wreg, status,2, status,0
  2718 ;; Tracked objects:
  2719 ;;		On entry : 0/0
  2720 ;;		On exit  : 0/0
  2721 ;;		Unchanged: 0/0
  2722 ;; Data sizes:     COMRAM   BANK0   BANK1   BANK2   BANK3   BANK4   BANK5   BANK6   BANK7   BANK8   BANK9  BANK10  BANK1
      +1  BANK12  BANK13  BANK14
  2723 ;;      Params:         2       0       0       0       0       0       0       0       0       0       0       0       
      +0       0       0       0
  2724 ;;      Locals:         0       0       0       0       0       0       0       0       0       0       0       0       
      +0       0       0       0
  2725 ;;      Temps:          0       0       0       0       0       0       0       0       0       0       0       0       
      +0       0       0       0
  2726 ;;      Totals:         2       0       0       0       0       0       0       0       0       0       0       0       
      +0       0       0       0
  2727 ;;Total ram usage:        2 bytes
  2728 ;; Hardware stack levels used: 1
  2729 ;; This function calls:
  2730 ;;		Nothing
  2731 ;; This function is called by:
  2732 ;;		_main
  2733 ;;		_CCP2_CaptureISR
  2734 ;; This function uses a non-reentrant model
  2735 ;;
  2736                           
  2737                           	psect	text27
  2738   0014E6                     __ptext27:
  2739                           	callstack 0
  2740   0014E6                     _Capture_CallBack:
  2741                           	callstack 22
  2742   0014E6                     
  2743                           ;main.c: 101:     static uint16_t oldHaut;;main.c: 102:     static uint16_t oldBas;;main
      +                          .c: 103:     if (rising){
  2744   0014E6  5058               	movf	_rising^0,w,c
  2745   0014E8  B4D8               	btfsc	status,2,c
  2746   0014EA  EF79  F00A         	goto	i2u29_41
  2747   0014EE  EF7B  F00A         	goto	i2u29_40
  2748   0014F2                     i2u29_41:
  2749   0014F2  EF8A  F00A         	goto	i2l1267
  2750   0014F6                     i2u29_40:
  2751   0014F6                     
  2752                           ;main.c: 104:         Bas=(capturesValue-oldBas);
  2753   0014F6  5025               	movf	Capture_CallBack@oldBas^0,w,c
  2754   0014F8  5C31               	subwf	Capture_CallBack@capturesValue^0,w,c
  2755   0014FA  6E29               	movwf	_Bas^0,c
  2756   0014FC  5026               	movf	(Capture_CallBack@oldBas+1)^0,w,c
  2757   0014FE  5832               	subwfb	(Capture_CallBack@capturesValue+1)^0,w,c
  2758   001500  6E2A               	movwf	(_Bas+1)^0,c
  2759   001502                     
  2760                           ;main.c: 105:         oldHaut=capturesValue;
  2761   001502  C031  F027         	movff	Capture_CallBack@capturesValue,Capture_CallBack@oldHaut
  2762   001506  C032  F028         	movff	Capture_CallBack@capturesValue+1,Capture_CallBack@oldHaut+1
  2763   00150A                     
  2764                           ;main.c: 106:         CCP2CON = 0x04;
  2765   00150A  0E04               	movlw	4
  2766   00150C  010F               	movlb	15	; () banked
  2767   00150E  6F50               	movwf	80,b	;volatile
  2768                           
  2769                           ;main.c: 107:     }else{
  2770   001510  EF97  F00A         	goto	i2l281
  2771   001514                     i2l1267:
  2772                           
  2773                           ;main.c: 108:         Haut=capturesValue-oldHaut;
  2774   001514  5027               	movf	Capture_CallBack@oldHaut^0,w,c
  2775   001516  5C31               	subwf	Capture_CallBack@capturesValue^0,w,c
  2776   001518  6E2B               	movwf	_Haut^0,c
  2777   00151A  5028               	movf	(Capture_CallBack@oldHaut+1)^0,w,c
  2778   00151C  5832               	subwfb	(Capture_CallBack@capturesValue+1)^0,w,c
  2779   00151E  6E2C               	movwf	(_Haut+1)^0,c
  2780   001520                     
  2781                           ;main.c: 109:         oldBas=capturesValue;
  2782   001520  C031  F025         	movff	Capture_CallBack@capturesValue,Capture_CallBack@oldBas
  2783   001524  C032  F026         	movff	Capture_CallBack@capturesValue+1,Capture_CallBack@oldBas+1
  2784   001528                     
  2785                           ;main.c: 110:         CCP2CON = 0x05;
  2786   001528  0E05               	movlw	5
  2787   00152A  010F               	movlb	15	; () banked
  2788   00152C  6F50               	movwf	80,b	;volatile
  2789   00152E                     i2l281:
  2790                           
  2791                           ; BSR set to: 15
  2792   00152E  0012               	return		;funcret
  2793   001530                     __end_of_Capture_CallBack:
  2794                           	callstack 0
  2795                           
  2796                           	psect	text28
  2797   000000                     __ptext28:
  2798                           	callstack 0
  2799   000000                     
  2800                           	psect	rparam
  2801   000000                     
  2802                           	psect	temp
  2803   000059                     btemp:
  2804                           	callstack 0
  2805   000059                     	ds	1
  2806   000000                     int$flags	set	btemp
  2807   000000                     wtemp8	set	btemp+1
  2808   000000                     ttemp5	set	btemp+1
  2809   000000                     ttemp6	set	btemp+4
  2810   000000                     ttemp7	set	btemp+8
  2811                           
  2812                           	psect	config
  2813                           
  2814                           ;Config register CONFIG1L @ 0x300000
  2815                           ;	VREG Sleep Enable bit
  2816                           ;	RETEN = OFF, Ultra low-power regulator is Disabled (Controlled by REGSLP bit)
  2817                           ;	LF-INTOSC Low-power Enable bit
  2818                           ;	INTOSCSEL = HIGH, LF-INTOSC in High-power mode during Sleep
  2819                           ;	SOSC Power Selection and mode Configuration bits
  2820                           ;	SOSCSEL = DIG, Digital (SCLKI) mode
  2821                           ;	Extended Instruction Set
  2822                           ;	XINST = OFF, Disabled
  2823   300000                     	org	3145728
  2824   300000  15                 	db	21
  2825                           
  2826                           ;Config register CONFIG1H @ 0x300001
  2827                           ;	Oscillator
  2828                           ;	FOSC = HS2, HS oscillator (High power, 16 MHz - 25 MHz)
  2829                           ;	PLL x4 Enable bit
  2830                           ;	PLLCFG = OFF, Disabled
  2831                           ;	Fail-Safe Clock Monitor
  2832                           ;	FCMEN = OFF, Disabled
  2833                           ;	Internal External Oscillator Switch Over Mode
  2834                           ;	IESO = OFF, Disabled
  2835   300001                     	org	3145729
  2836   300001  02                 	db	2
  2837                           
  2838                           ;Config register CONFIG2L @ 0x300002
  2839                           ;	Power Up Timer
  2840                           ;	PWRTEN = OFF, Disabled
  2841                           ;	Brown Out Detect
  2842                           ;	BOREN = SBORDIS, Enabled in hardware, SBOREN disabled
  2843                           ;	Brown-out Reset Voltage bits
  2844                           ;	BORV = 3, 1.8V
  2845                           ;	BORMV Power level
  2846                           ;	BORPWR = ZPBORMV, ZPBORMV instead of BORMV is selected
  2847   300002                     	org	3145730
  2848   300002  7F                 	db	127
  2849                           
  2850                           ;Config register CONFIG2H @ 0x300003
  2851                           ;	Watchdog Timer
  2852                           ;	WDTEN = OFF, WDT disabled in hardware; SWDTEN bit disabled
  2853                           ;	Watchdog Postscaler
  2854                           ;	WDTPS = 1048576, 1:1048576
  2855   300003                     	org	3145731
  2856   300003  50                 	db	80
  2857                           
  2858                           ; Padding undefined space
  2859   300004                     	org	3145732
  2860   300004  FF                 	db	255
  2861                           
  2862                           ;Config register CONFIG3H @ 0x300005
  2863                           ;	ECAN Mux bit
  2864                           ;	CANMX = PORTB, ECAN TX and RX pins are located on RB2 and RB3, respectively
  2865                           ;	MSSP address masking
  2866                           ;	MSSPMSK = MSK7, 7 Bit address masking mode
  2867                           ;	Master Clear Enable
  2868                           ;	MCLRE = ON, MCLR Enabled, RE3 Disabled
  2869   300005                     	org	3145733
  2870   300005  89                 	db	137
  2871                           
  2872                           ;Config register CONFIG4L @ 0x300006
  2873                           ;	Stack Overflow Reset
  2874                           ;	STVREN = ON, Enabled
  2875                           ;	Boot Block Size
  2876                           ;	BBSIZ = BB2K, 2K word Boot Block size
  2877                           ;	Background Debugger
  2878                           ;	DEBUG = 0x1, unprogrammed default
  2879   300006                     	org	3145734
  2880   300006  91                 	db	145
  2881                           
  2882                           ; Padding undefined space
  2883   300007                     	org	3145735
  2884   300007  FF                 	db	255
  2885                           
  2886                           ;Config register CONFIG5L @ 0x300008
  2887                           ;	Code Protect 00800-01FFF
  2888                           ;	CP0 = OFF, Disabled
  2889                           ;	Code Protect 02000-03FFF
  2890                           ;	CP1 = OFF, Disabled
  2891                           ;	Code Protect 04000-05FFF
  2892                           ;	CP2 = OFF, Disabled
  2893                           ;	Code Protect 06000-07FFF
  2894                           ;	CP3 = OFF, Disabled
  2895   300008                     	org	3145736
  2896   300008  0F                 	db	15
  2897                           
  2898                           ;Config register CONFIG5H @ 0x300009
  2899                           ;	Code Protect Boot
  2900                           ;	CPB = OFF, Disabled
  2901                           ;	Data EE Read Protect
  2902                           ;	CPD = OFF, Disabled
  2903   300009                     	org	3145737
  2904   300009  C0                 	db	192
  2905                           
  2906                           ;Config register CONFIG6L @ 0x30000A
  2907                           ;	Table Write Protect 00800-01FFF
  2908                           ;	WRT0 = OFF, Disabled
  2909                           ;	Table Write Protect 02000-03FFF
  2910                           ;	WRT1 = OFF, Disabled
  2911                           ;	Table Write Protect 04000-05FFF
  2912                           ;	WRT2 = OFF, Disabled
  2913                           ;	Table Write Protect 06000-07FFF
  2914                           ;	WRT3 = OFF, Disabled
  2915   30000A                     	org	3145738
  2916   30000A  0F                 	db	15
  2917                           
  2918                           ;Config register CONFIG6H @ 0x30000B
  2919                           ;	Config. Write Protect
  2920                           ;	WRTC = OFF, Disabled
  2921                           ;	Table Write Protect Boot
  2922                           ;	WRTB = OFF, Disabled
  2923                           ;	Data EE Write Protect
  2924                           ;	WRTD = OFF, Disabled
  2925   30000B                     	org	3145739
  2926   30000B  E0                 	db	224
  2927                           
  2928                           ;Config register CONFIG7L @ 0x30000C
  2929                           ;	Table Read Protect 00800-01FFF
  2930                           ;	EBTR0 = OFF, Disabled
  2931                           ;	Table Read Protect 02000-03FFF
  2932                           ;	EBTR1 = OFF, Disabled
  2933                           ;	Table Read Protect 04000-05FFF
  2934                           ;	EBTR2 = OFF, Disabled
  2935                           ;	Table Read Protect 06000-07FFF
  2936                           ;	EBTR3 = OFF, Disabled
  2937   30000C                     	org	3145740
  2938   30000C  0F                 	db	15
  2939                           
  2940                           ;Config register CONFIG7H @ 0x30000D
  2941                           ;	Table Read Protect Boot
  2942                           ;	EBTRB = OFF, Disabled
  2943   30000D                     	org	3145741
  2944   30000D  40                 	db	64
  2945                           tosu	equ	0xFFF
  2946                           tosh	equ	0xFFE
  2947                           tosl	equ	0xFFD
  2948                           stkptr	equ	0xFFC
  2949                           pclatu	equ	0xFFB
  2950                           pclath	equ	0xFFA
  2951                           pcl	equ	0xFF9
  2952                           tblptru	equ	0xFF8
  2953                           tblptrh	equ	0xFF7
  2954                           tblptrl	equ	0xFF6
  2955                           tablat	equ	0xFF5
  2956                           prodh	equ	0xFF4
  2957                           prodl	equ	0xFF3
  2958                           indf0	equ	0xFEF
  2959                           postinc0	equ	0xFEE
  2960                           postdec0	equ	0xFED
  2961                           preinc0	equ	0xFEC
  2962                           plusw0	equ	0xFEB
  2963                           fsr0h	equ	0xFEA
  2964                           fsr0l	equ	0xFE9
  2965                           wreg	equ	0xFE8
  2966                           indf1	equ	0xFE7
  2967                           postinc1	equ	0xFE6
  2968                           postdec1	equ	0xFE5
  2969                           preinc1	equ	0xFE4
  2970                           plusw1	equ	0xFE3
  2971                           fsr1h	equ	0xFE2
  2972                           fsr1l	equ	0xFE1
  2973                           bsr	equ	0xFE0
  2974                           indf2	equ	0xFDF
  2975                           postinc2	equ	0xFDE
  2976                           postdec2	equ	0xFDD
  2977                           preinc2	equ	0xFDC
  2978                           plusw2	equ	0xFDB
  2979                           fsr2h	equ	0xFDA
  2980                           fsr2l	equ	0xFD9
  2981                           status	equ	0xFD8

Data Sizes:
    Strings     39
    Constant    0
    Data        1
    BSS         48
    Persistent  8
    Stack       0

Auto Spaces:
    Space          Size  Autos    Used
    COMRAM           94     35      88
    BANK0           160      5       9
    BANK1           256      0       0
    BANK2           256      0       0
    BANK3           256      0       0
    BANK4           256      0       0
    BANK5           256      0       0
    BANK6           256      0       0
    BANK7           256      0       0
    BANK8           256      0       0
    BANK9           256      0       0
    BANK10          256      0       0
    BANK11          256      0       0
    BANK12          256      0       0
    BANK13          256      0       0
    BANK14           65      0       0

Pointer List with Targets:

    CCP2_CallBack	PTR FTN(unsigned short ,)void  size(2) Largest target is 1
		 -> Capture_CallBack(), CCP2_DefaultCallBack(), NULL(), 

    CCP2_SetCallBack@customCallBack	PTR FTN(unsigned short ,)void  size(2) Largest target is 1
		 -> Capture_CallBack(), CCP2_DefaultCallBack(), 

    EUSART1_ErrorHandler	PTR FTN()void  size(2) Largest target is 1
		 -> EUSART1_DefaultErrorHandler(), NULL(), 

    EUSART1_FramingErrorHandler	PTR FTN()void  size(2) Largest target is 1
		 -> EUSART1_DefaultFramingErrorHandler(), NULL(), 

    EUSART1_OverrunErrorHandler	PTR FTN()void  size(2) Largest target is 1
		 -> EUSART1_DefaultOverrunErrorHandler(), NULL(), 

    EUSART1_SetErrorHandler@interruptHandler	PTR FTN()void  size(2) Largest target is 1
		 -> EUSART1_DefaultErrorHandler(), 

    EUSART1_SetFramingErrorHandler@interruptHandler	PTR FTN()void  size(2) Largest target is 1
		 -> EUSART1_DefaultFramingErrorHandler(), 

    EUSART1_SetOverrunErrorHandler@interruptHandler	PTR FTN()void  size(2) Largest target is 1
		 -> EUSART1_DefaultOverrunErrorHandler(), 

    fputc@fp	PTR struct _IO_FILE size(2) Largest target is 0
		 -> NULL(NULL[0]), 

    fputc@fp$.$buffer	PTR unsigned char  size(2) Largest target is 0

    fputc@fp$.$source	PTR const unsigned char  size(2) Largest target is 0

    printf@ap	PTR void [1] size(1) Largest target is 2
		 -> ?_printf(BANK0[2]), 

    printf@fmt	PTR const unsigned char  size(1) Largest target is 12
		 -> STR_1(CODE[12]), STR_2(CODE[12]), STR_3(CODE[12]), STR_4(CODE[3]), 
		 -> STR_5(CODE[3]), STR_6(CODE[3]), 

    S1437$buffer	PTR unsigned char  size(2) Largest target is 0

    S1437$source	PTR const unsigned char  size(2) Largest target is 0

    vfpfcnvrt@ap	PTR PTR void  size(1) Largest target is 1
		 -> printf@ap(COMRAM[1]), 

    vfpfcnvrt@cp	PTR unsigned char  size(1) Largest target is 12
		 -> STR_1(CODE[12]), STR_2(CODE[12]), STR_3(CODE[12]), STR_4(CODE[3]), 
		 -> STR_5(CODE[3]), STR_6(CODE[3]), 

    vfpfcnvrt@fmt	PTR PTR unsigned char  size(1) Largest target is 1
		 -> vfprintf@cfmt(COMRAM[1]), 

    vfpfcnvrt@fp	PTR struct _IO_FILE size(2) Largest target is 0
		 -> NULL(NULL[0]), 

    vfprintf@ap	PTR PTR void  size(1) Largest target is 1
		 -> printf@ap(COMRAM[1]), 

    vfprintf@cfmt	PTR unsigned char  size(1) Largest target is 12
		 -> STR_1(CODE[12]), STR_2(CODE[12]), STR_3(CODE[12]), STR_4(CODE[3]), 
		 -> STR_5(CODE[3]), STR_6(CODE[3]), 

    vfprintf@fmt	PTR const unsigned char  size(1) Largest target is 12
		 -> STR_1(CODE[12]), STR_2(CODE[12]), STR_3(CODE[12]), STR_4(CODE[3]), 
		 -> STR_5(CODE[3]), STR_6(CODE[3]), 

    vfprintf@fp	PTR struct _IO_FILE size(2) Largest target is 0
		 -> NULL(NULL[0]), 


Critical Paths under _main in COMRAM

    _main->_printf
    _videEcran->_EUSART1_Write
    _printf->_vfprintf
    _vfprintf->_vfpfcnvrt
    _vfpfcnvrt->_fputc
    _fputc->_putch
    _putch->_EUSART1_Write
    _abs->___awmod
    _curseurPosition->_EUSART1_Write
    _SYSTEM_Initialize->_TMR1_Initialize
    _EUSART1_Initialize->_EUSART1_SetErrorHandler
    _EUSART1_Initialize->_EUSART1_SetFramingErrorHandler
    _EUSART1_Initialize->_EUSART1_SetOverrunErrorHandler
    _CCP2_Initialize->_CCP2_SetCallBack

Critical Paths under _INTERRUPT_InterruptManager in COMRAM

    _INTERRUPT_InterruptManager->_CCP2_CaptureISR
    _CCP2_CaptureISR->_CCP2_DefaultCallBack
    _CCP2_CaptureISR->_Capture_CallBack

Critical Paths under _main in BANK0

    _main->_printf

Critical Paths under _INTERRUPT_InterruptManager in BANK0

    None.

Critical Paths under _main in BANK1

    None.

Critical Paths under _INTERRUPT_InterruptManager in BANK1

    None.

Critical Paths under _main in BANK2

    None.

Critical Paths under _INTERRUPT_InterruptManager in BANK2

    None.

Critical Paths under _main in BANK3

    None.

Critical Paths under _INTERRUPT_InterruptManager in BANK3

    None.

Critical Paths under _main in BANK4

    None.

Critical Paths under _INTERRUPT_InterruptManager in BANK4

    None.

Critical Paths under _main in BANK5

    None.

Critical Paths under _INTERRUPT_InterruptManager in BANK5

    None.

Critical Paths under _main in BANK6

    None.

Critical Paths under _INTERRUPT_InterruptManager in BANK6

    None.

Critical Paths under _main in BANK7

    None.

Critical Paths under _INTERRUPT_InterruptManager in BANK7

    None.

Critical Paths under _main in BANK8

    None.

Critical Paths under _INTERRUPT_InterruptManager in BANK8

    None.

Critical Paths under _main in BANK9

    None.

Critical Paths under _INTERRUPT_InterruptManager in BANK9

    None.

Critical Paths under _main in BANK10

    None.

Critical Paths under _INTERRUPT_InterruptManager in BANK10

    None.

Critical Paths under _main in BANK11

    None.

Critical Paths under _INTERRUPT_InterruptManager in BANK11

    None.

Critical Paths under _main in BANK12

    None.

Critical Paths under _INTERRUPT_InterruptManager in BANK12

    None.

Critical Paths under _main in BANK13

    None.

Critical Paths under _INTERRUPT_InterruptManager in BANK13

    None.

Critical Paths under _main in BANK14

    None.

Critical Paths under _INTERRUPT_InterruptManager in BANK14

    None.

Call Graph Tables:

 ---------------------------------------------------------------------------------
 (Depth) Function   	        Calls       Base Space   Used Autos Params    Refs
 ---------------------------------------------------------------------------------
 (0) _main                                                 2     2      0    5355
                                              3 BANK0      2     2      0
                   _CCP2_SetCallBack
                  _SYSTEM_Initialize
                            ___lwdiv
                    _curseurPosition
                             _printf
                          _videEcran
 ---------------------------------------------------------------------------------
 (1) _videEcran                                            0     0      0      15
                      _EUSART1_Write
 ---------------------------------------------------------------------------------
 (1) _printf                                               6     3      3    3587
                                             34 COMRAM     1     1      0
                                              0 BANK0      3     0      3
                            ___lwdiv (ARG)
                           _vfprintf
 ---------------------------------------------------------------------------------
 (2) _vfprintf                                             5     1      4    2966
                                             29 COMRAM     5     1      4
                          _vfpfcnvrt
 ---------------------------------------------------------------------------------
 (3) _vfpfcnvrt                                           12     8      4    2616
                                             17 COMRAM    12     8      4
                            ___awdiv
                            ___awmod
                                _abs
                              _fputc
 ---------------------------------------------------------------------------------
 (4) _fputc                                                9     5      4     812
                                              8 COMRAM     9     5      4
                              _putch
 ---------------------------------------------------------------------------------
 (5) _putch                                                1     1      0      30
                                              7 COMRAM     1     1      0
                      _EUSART1_Write
 ---------------------------------------------------------------------------------
 (4) _abs                                                  4     2      2     142
                                             12 COMRAM     4     2      2
                            ___awmod (ARG)
 ---------------------------------------------------------------------------------
 (4) ___awmod                                              6     2      4     448
                                              6 COMRAM     6     2      4
 ---------------------------------------------------------------------------------
 (4) ___awdiv                                              8     4      4     452
                                              6 COMRAM     8     4      4
 ---------------------------------------------------------------------------------
 (1) _curseurPosition                                      2     0      2     493
                                              7 COMRAM     2     0      2
                      _EUSART1_Write
 ---------------------------------------------------------------------------------
 (2) _EUSART1_Write                                        1     1      0      15
                                              6 COMRAM     1     1      0
 ---------------------------------------------------------------------------------
 (1) ___lwdiv                                              7     3      4     618
                                              6 COMRAM     7     3      4
 ---------------------------------------------------------------------------------
 (1) _SYSTEM_Initialize                                    0     0      0     468
                    _CCP2_Initialize
                 _EUSART1_Initialize
               _INTERRUPT_Initialize
              _OSCILLATOR_Initialize
             _PIN_MANAGER_Initialize
                    _TMR1_Initialize
 ---------------------------------------------------------------------------------
 (2) _TMR1_Initialize                                      2     2      0       0
                                              6 COMRAM     2     2      0
 ---------------------------------------------------------------------------------
 (2) _PIN_MANAGER_Initialize                               0     0      0       0
 ---------------------------------------------------------------------------------
 (2) _OSCILLATOR_Initialize                                0     0      0       0
 ---------------------------------------------------------------------------------
 (2) _INTERRUPT_Initialize                                 0     0      0       0
 ---------------------------------------------------------------------------------
 (2) _EUSART1_Initialize                                   0     0      0     294
            _EUSART1_SetErrorHandler
     _EUSART1_SetFramingErrorHandler
     _EUSART1_SetOverrunErrorHandler
 ---------------------------------------------------------------------------------
 (3) _EUSART1_SetOverrunErrorHandler                       2     0      2      98
                                              6 COMRAM     2     0      2
 ---------------------------------------------------------------------------------
 (3) _EUSART1_SetFramingErrorHandler                       2     0      2      98
                                              6 COMRAM     2     0      2
 ---------------------------------------------------------------------------------
 (3) _EUSART1_SetErrorHandler                              2     0      2      98
                                              6 COMRAM     2     0      2
 ---------------------------------------------------------------------------------
 (2) _CCP2_Initialize                                      0     0      0     174
                   _CCP2_SetCallBack
 ---------------------------------------------------------------------------------
 (3) _CCP2_SetCallBack                                     2     0      2     174
                                              6 COMRAM     2     0      2
 ---------------------------------------------------------------------------------
 Estimated maximum stack depth 5
 ---------------------------------------------------------------------------------
 (Depth) Function   	        Calls       Base Space   Used Autos Params    Refs
 ---------------------------------------------------------------------------------
 (7) _INTERRUPT_InterruptManager                           2     2      0     150
                                              4 COMRAM     2     2      0
                    _CCP2_CaptureISR
 ---------------------------------------------------------------------------------
 (8) _CCP2_CaptureISR                                      2     2      0     150
                                              2 COMRAM     2     2      0
                                NULL *
               _CCP2_DefaultCallBack *
                   _Capture_CallBack *
 ---------------------------------------------------------------------------------
 (9) _Capture_CallBack                                     2     0      2     103
                                              0 COMRAM     2     0      2
 ---------------------------------------------------------------------------------
 (9) _CCP2_DefaultCallBack                                 2     0      2       0
                                              0 COMRAM     2     0      2
 ---------------------------------------------------------------------------------
 (9) NULL(Fake)                                            2     0      2       0
 ---------------------------------------------------------------------------------
 Estimated maximum stack depth 9
 ---------------------------------------------------------------------------------

 Call Graph Graphs:

 _main (ROOT)
   _CCP2_SetCallBack
   _SYSTEM_Initialize
     _CCP2_Initialize
       _CCP2_SetCallBack
     _EUSART1_Initialize
       _EUSART1_SetErrorHandler
       _EUSART1_SetFramingErrorHandler
       _EUSART1_SetOverrunErrorHandler
     _INTERRUPT_Initialize
     _OSCILLATOR_Initialize
     _PIN_MANAGER_Initialize
     _TMR1_Initialize
   ___lwdiv
   _curseurPosition
     _EUSART1_Write
   _printf
     ___lwdiv (ARG)
     _vfprintf (ARG)
       _vfpfcnvrt
         ___awdiv
         ___awmod
         _abs
           ___awmod (ARG)
         _fputc
           _putch
             _EUSART1_Write
   _videEcran
     _EUSART1_Write

 _INTERRUPT_InterruptManager (ROOT)
   _CCP2_CaptureISR
     NULL(Fake) *
     _CCP2_DefaultCallBack *
     _Capture_CallBack *

 Address spaces:
Name               Size   Autos  Total    Cost      Usage
BIGRAM             E40      0       0      49        0.0%
EEDATA             400      0       0       0        0.0%
BITBIGSFRl         10F      0       0      37        0.0%
BITBANK13          100      0       0      46        0.0%
BANK13             100      0       0      23        0.0%
BITBANK12          100      0       0      45        0.0%
BANK12             100      0       0      22        0.0%
BITBANK11          100      0       0      20        0.0%
BANK11             100      0       0      21        0.0%
BITBANK10          100      0       0      44        0.0%
BANK10             100      0       0      19        0.0%
BITBANK9           100      0       0      43        0.0%
BANK9              100      0       0      18        0.0%
BITBANK8           100      0       0      42        0.0%
BANK8              100      0       0      17        0.0%
BITBANK7           100      0       0      41        0.0%
BANK7              100      0       0      16        0.0%
BITBANK6           100      0       0      40        0.0%
BANK6              100      0       0      15        0.0%
BITBANK5           100      0       0      39        0.0%
BANK5              100      0       0      14        0.0%
BITBANK4           100      0       0      12        0.0%
BANK4              100      0       0      13        0.0%
BITBANK3           100      0       0      10        0.0%
BANK3              100      0       0      11        0.0%
BITBANK2           100      0       0       8        0.0%
BANK2              100      0       0       9        0.0%
BITBANK1           100      0       0       6        0.0%
BANK1              100      0       0       7        0.0%
BITBANK0            A0      0       0       4        0.0%
BANK0               A0      5       9       5        5.6%
BITCOMRAM           5E      0       0       0        0.0%
COMRAM              5E     23      58       1       93.6%
BITBANK14           41      0       0      47        0.0%
BANK14              41      0       0      48        0.0%
BITBIGSFRhllh       1F      0       0      35        0.0%
BITBIGSFRhhhlhl     1D      0       0      27        0.0%
BITBIGSFRhhhhl      1D      0       0      25        0.0%
BITBIGSFRhhhhh       D      0       0      24        0.0%
BITBIGSFRhlhl        B      0       0      34        0.0%
BITBIGSFRhlll        8      0       0      36        0.0%
BITBIGSFRhlhhl       6      0       0      33        0.0%
BITBIGSFRhlhhh       4      0       0      32        0.0%
BITBIGSFRhhlhh       4      0       0      30        0.0%
BITBIGSFRhhhllh      2      0       0      28        0.0%
BITBIGSFRhhlhl       2      0       0      31        0.0%
BITBIGSFRhhhlll      2      0       0      29        0.0%
BITBIGSFRhhhlhh      1      0       0      26        0.0%
BIGSFR               0      0       0     200        0.0%
BITSFR_2             0      0       0     200        0.0%
SFR_2                0      0       0     200        0.0%
BITSFR_1             0      0       0     200        0.0%
SFR_1                0      0       0     200        0.0%
BITSFR               0      0       0     200        0.0%
SFR                  0      0       0     200        0.0%
STACK                0      0       0       2        0.0%
NULL                 0      0       0       0        0.0%
ABS                  0      0      61      38        0.0%
DATA                 0      0      61       3        0.0%
CODE                 0      0       0       0        0.0%


Microchip Technology PIC18 Macro Assembler V2.45 build 20230818022343 
Symbol Table                                                                                   Tue Feb 11 12:11:58 2025

                              _Capture_CallBack 14E6                                              l22 16AC  
                                            l51 16E0                                              l28 175C  
                                            l54 171C                                              l73 168A  
                                            u10 16F2                                              u11 16EE  
                                  ___awdiv@sign 003C                                             l112 1760  
                                           l212 1752                                             l206 1748  
                                           l209 173E                                             l164 15AE  
                                           l237 1664                                             l191 16F6  
                                           l194 1734                                             l188 16E4  
                                           l292 170A                                             l535 13C0  
                                           l295 172A                                             l802 14E4  
                                           l548 1470                                             l795 14DC  
                                           l982 16C6                                             u500 13EE  
                                           u501 13EA                                             u430 1310  
                                           u510 1408                                             u431 130C  
                                           u511 1404                                             u440 132A  
                                           u520 1426                                             u600 0F4C  
                                           u441 1326                                             u521 1422  
                                           u601 0F48                                             u450 1350  
                                           u530 143C                                             u610 0F8A  
                                           u451 134C                                             u531 1438  
                                           u611 0F86                                             u460 136E  
                                           u540 1460                                             u620 0FA6  
                                           u700 1568                                             u461 136A  
                                           u541 145C                                             u621 0FA2  
                                           u701 1564                                             u470 138A  
                                           u550 1246                                             u630 0FDC  
                                           u471 1386                                             u551 1242  
                                           u631 0FD6                                             u720 148C  
                                           u480 13B0                                             u560 1258  
                                           u640 0FDE                                             u721 1488  
                                           u481 13AC                                             u561 1254  
                                           u730 14AA                                             u490 13D4  
                                           u570 1280                                             u650 103E  
                                           u731 14A6                                             u491 13D0  
                                           u571 127C                                             u651 103A  
                                           u740 14C6                                             u580 12B6  
                                           u660 104E                                             u741 14C2  
                                           u581 12B2                                             u661 104A  
                                           u590 15BE                                             u670 105E  
                                           u591 15BA                                             u671 105A  
                                           u807 121E                                             u680 106E  
                                           u681 106A                                             u690 10B2  
                                           u691 10AE                                             u787 1182  
                                           u797 11D2                                             _Bas 0029  
                               _timer1ReloadVal 002D                                             _abs 15B0  
                                  ___awmod@sign 003C                                             tosl 0FFD  
                                           wreg 0FE8                                      _TXSTA1bits 0FAC  
                                          l1020 10E8                                            l1030 15CA  
                                          l1033 15E2                                            l1026 1570  
                                          ?_abs 003D                                            l1045 12FC  
                                          l1231 164E                                            l1055 16E4  
                                          l1233 1662                                            l1241 166C  
                                          l1057 16F2                                            l1313 171E  
                                          l1227 175E                                            l1235 170C  
                                          l1243 166E                                            l1059 172E  
                                          l1229 163E                                            l1245 1670  
                                          l1237 1666                                            l1501 13C2  
                                          l1247 1686                                            l1239 166A  
                                          l1511 13EE                                            l1503 13C6  
                                          l1521 1426                                            l1513 13F6  
                                          l1505 13D4                                            l1601 10A0  
                                          l1531 1460                                            l1523 143C  
                                          l1515 1408                                            l1507 13DC  
                                          l1603 10B6                                            l1621 16AA  
                                          l1613 168C                                            l1461 1310  
                                          l1533 1468                                            l1525 1444  
                                          l1517 1410                                            l1509 13E0  
                                          l1541 1258                                            l1615 169A  
                                          l1631 15AA                                            l1623 1572  
                                          l1471 1336                                            l1463 1318  
                                          l1527 144A                                            l1519 1418  
                                          l1551 15B0                                            l1543 1262  
                                          l1607 10C2                                            l1617 16A6  
                                          l1561 174A                                            l1625 1586  
                                          l1481 136E                                            l1473 133E  
                                          l1465 131C                                            l1457 12FE  
                                          l1529 1450                                            l1553 15BE  
                                          l1545 1280                                            l1537 1234  
                                          l1633 1530                                            l1555 1754  
                                          l1619 16A8                                            l1627 1592  
                                          l1651 16D0                                            l1491 139A  
                                          l1483 1374                                            l1475 1350  
                                          l1467 132A                                            l1459 1302  
                                          l1547 12B6                                            l1539 1246  
                                          l1571 0F64                                            l1563 0F2A  
                                          l1635 1538                                            l1557 1740  
                                          l1629 159E                                            l1653 16D4  
                                          l1661 1704                                            l1485 138A  
                                          l1477 1358                                            l1493 13A0  
                                          l1469 1332                                            l1581 0FC8  
                                          l1573 0F6E                                            l1565 0F4C  
                                          l1637 154C                                            l1559 1736  
                                          l1655 16D8                                            l1647 16C8  
                                          l1671 147A                                            l1495 13B0  
                                          l1487 1392                                            l1479 1360  
                                          l1591 104E                                            l1583 0FE0  
                                          l1575 0F8A                                            l1567 0F54  
                                          l1639 1568                                            l1751 1102  
                                          l1743 10EA                                            l1657 16DC  
                                          l1649 16CC                                            l1681 14B0  
                                          l1673 148C                                            l1497 13B8  
                                          l1489 1394                                            l1593 105E  
                                          l1585 1010                                            l1577 0FA6  
                                          l1569 0F60                                            l1737 16AE  
                                          l1761 113A                                            l1753 110E  
                                          l1745 10EE                                            l1683 14C6  
                                          l1675 1494                                            l1659 16F8  
                                          l1595 106E                                            l1587 102C  
                                          l1579 0FBE                                            l1739 16B2  
                                          l1771 119C                                            l1763 1144  
                                          l1755 1118                                            l1747 10F0  
                                          l1685 14CE                                            l1677 149C  
                                          l1669 1472                                            l1597 1080  
                                          l1589 103E                                            l1773 11C6  
                                          l1765 1150                                            l1757 1124  
                                          l1749 10FE                                            l1687 14D0  
                                          l1679 14AA                                            l1599 109E  
                                          l1775 11E0                                            l1767 1176  
                                          l1759 112E                                            l1689 14D6  
                                          l1777 11EC                                            l1769 1190  
                                          l1779 1212                                            STR_1 0F19  
                                          STR_2 0F01                                            STR_3 0F0D  
                                          STR_4 0F25                                            STR_5 0F25  
                                          STR_6 0F25                                            _LATA 0F89  
                                          _LATB 0F8A                                            _LATC 0F8B  
                                          i2l25 1610                                            i2l19 1762  
                                          _WPUB 0F5B                                            _Haut 002B  
                                 _EUSART1_Write 16E2                                            abs@a 003D  
                                          _dbuf 0001                         __end_of_CCP2_Initialize 16AE  
                                          _main 10EA                                            _prec 0023  
                                          fsr1h 0FE2                                            fsr2h 0FDA  
                                          indf2 0FDF                                            fsr1l 0FE1  
                                          fsr2l 0FD9                                            btemp 0059  
                                          start 004C                                    ___param_bank 0000  
                             ??_curseurPosition 003A                                           ??_abs 003F  
                 __end_of_OSCILLATOR_Initialize 171E                                           ?_main 0031  
                               __end_of___awdiv 13C2                                 __end_of___awmod 1472  
                               ___awdiv@divisor 0039                                           _T1CON 0FCD  
                               __end_of___lwdiv 14E6                                           i2l121 0040  
                                         i2l281 152E                                 ___awdiv@counter 003B  
                                  vfpfcnvrt@fmt 0044                                           _TMR1H 0FCF  
                                         _TMR1L 0FCE                                           _TRISA 0F92  
                                         _TRISB 0F93                                           _TRISC 0F94  
                              ?_CCP2_CaptureISR 0031                                           _flags 002F  
                                         _fputc 1234                                           _width 0021  
                                         _putch 172C                                  ?_EUSART1_Write 0031  
                       __end_of_TMR1_Initialize 168C                                           pclath 0FFA  
                                         pclatu 0FFB                                           tablat 0FF5  
                                         ttemp5 005A                                           ttemp6 005D  
                                         ttemp7 0061                                           status 0FD8  
                                         wtemp8 005A              _EUSART1_DefaultFramingErrorHandler 0000  
                      __end_of_CCP2_SetCallBack 175E                         fp__CCP2_DefaultCallBack 0000  
                               __initialization 1612                      __end_of_EUSART1_Initialize 15B0  
                                  __end_of_main 1234                     ?_INTERRUPT_InterruptManager 0031  
                                        ??_main 0063                                   __activetblptr 0002  
                                        ?_fputc 0039                                          _CCPR2H 0F52  
                                        _CCPR2L 0F51                                          _ANCON0 0F5D  
                                        _ANCON1 0F5C                                ___awdiv@dividend 0037  
                                        ?_putch 0031                                          _T1GCON 0FAA  
                                        i2l1261 14F6                                          i2l1271 1528  
                                        i2l1263 1502                                          i2l1265 150A  
                                        i2l1267 1514                                          i2l1259 14E6  
                                        i2l1269 1520                                          i2l1643 15E4  
                                        i2l1645 15EE                                          i2l1691 0012  
                                        i2l1693 0020                                          i2l1695 002E  
                                        i2l1697 003C                                          _RCREG1 0FAE  
                                        _RCSTA1 0FAB                                          _OSCCON 0FD3  
                                 vfpfcnvrt@done 0047                                          _SPBRG1 0FAF  
                              ?_CCP2_Initialize 0031                                          _TXREG1 0FAD  
                                        _TXSTA1 0FAC                                   _CCP2_CallBack 0056  
                                  vfprintf@cfmt 0052                                       ??___awdiv 003B  
                                     ??___awmod 003B                                       ??___lwdiv 003B  
                      ?_EUSART1_SetErrorHandler 0037                                          clear_0 162A  
                              ___awdiv@quotient 003D                                 ___awmod@divisor 0039  
                                        isa$std 0001                                          _rising 0058  
                           fp__Capture_CallBack 0000                                 ___awmod@counter 003B  
                                        _printf 16AE                ??_EUSART1_SetOverrunErrorHandler 0039  
               ?_EUSART1_SetOverrunErrorHandler 0037                                          fputc@c 0039  
                                  __pdataCOMRAM 0058                                    __mediumconst 0000  
             CCP2_DefaultCallBack@capturedValue 0031                                          tblptrh 0FF7  
                                        tblptrl 0FF6                                          tblptru 0FF8  
                              __end_of_vfprintf 1572                                 ??_EUSART1_Write 0037  
                      __end_of_Capture_CallBack 1530                                ?_TMR1_Initialize 0031  
                             _SYSTEM_Initialize 16C8                                      __accesstop 0060  
                       __end_of__initialization 1630                              ?_SYSTEM_Initialize 0031  
                                 ___rparam_used 0001                                  __pcstackCOMRAM 0031  
                           ??_SYSTEM_Initialize 0039                                   __end_of_fputc 12FE  
                                 __end_of_putch 1736                                         ??_fputc 003D  
                     __end_of_SYSTEM_Initialize 16E2                                         ??_putch 0038  
                               _curseurPosition 16F8                                      __pnvCOMRAM 0054  
               __end_of_EUSART1_SetErrorHandler 1754                                         _CCP2CON 0F50  
                                       ?_printf 0060          __end_of_EUSART1_SetFramingErrorHandler 174A  
                _EUSART1_SetFramingErrorHandler 1740                                         _REFOCON 0F9A  
                                       _OSCCON2 0FD2                                         i2u29_40 14F6  
                                       i2u29_41 14F2                                         _OSCTUNE 0F9B  
                                       i2u71_48 15FC                                         i2u71_49 1610  
                                       i2u75_40 0020                                         i2u75_41 001C  
                                       _SPBRGH1 0F7D                                         i2u76_40 002E  
                                       i2u76_41 002A                                         i2u77_40 003C  
                                       i2u77_41 0038                                         __Hparam 0000  
                                       __Lparam 0000                               ?_CCP2_SetCallBack 0037  
                                       ___awdiv 12FE                                         ___awmod 13C2  
                            ??_CCP2_SetCallBack 0039                                         ___lwdiv 1472  
                                     ?_vfprintf 004E                                    __psmallconst 0F00  
                                       __pcinit 1612                                         __ramtop 0F00  
                                       __ptext0 10EA                                         __ptext1 171E  
                                       __ptext2 16AE                                         __ptext3 1530  
                                       __ptext4 0F2A                                         __ptext5 1234  
                                       __ptext6 172C                                         __ptext7 15B0  
                                       __ptext8 13C2                                         __ptext9 12FE  
                                     _T1CONbits 0FCD                           _OSCILLATOR_Initialize 170C  
                              ___awmod@dividend 0037                              _EUSART1_Initialize 1572  
                      ??_PIN_MANAGER_Initialize 0037                         __end_of_curseurPosition 170C  
                          end_of_initialization 1630                             ?_EUSART1_Initialize 0031  
                             __end_of_videEcran 172C                                         fputc@fp 003B  
                                 __Lmediumconst 0000                     _EUSART1_OverrunErrorHandler 0067  
                             __end_of_vfpfcnvrt 10EA                                         postdec2 0FDD  
                                       postinc0 0FEE                                         postinc1 0FE6  
                                       postinc2 0FDE                                vfpfcnvrt@convarg 0049  
                                    ??_vfprintf 0052                            ??_EUSART1_Initialize 0039  
                 Capture_CallBack@capturesValue 0031                             EUSART1_Write@txData 0037  
                             ?_Capture_CallBack 0031                              ??_Capture_CallBack 0033  
                  __end_of_INTERRUPT_Initialize 1762                                     vfpfcnvrt@ap 0045  
                                   vfpfcnvrt@cp 0048                                     vfpfcnvrt@fp 0042  
                                 __pidataCOMRAM 1764                          ?_OSCILLATOR_Initialize 0031  
                  __end_of_CCP2_DefaultCallBack 1764                                  __end_of_printf 16C8  
                           start_initialization 1612                  CCP2_SetCallBack@customCallBack 0037  
                                   __end_of_abs 15E4                                ?_curseurPosition 0038  
                                   putch@txData 0038                           __end_of_EUSART1_Write 16F8  
                                   vfprintf@fmt 0050                               ??_CCP2_CaptureISR 0033  
                                   _CCPTMRSbits 0F99                                        ??_printf 0053  
                                   __pbssCOMRAM 0001                                   __pcstackBANK0 0060  
              ??_EUSART1_SetFramingErrorHandler 0039                 ?_EUSART1_SetFramingErrorHandler 0037  
                       curseurPosition@position 0038                                       __pnvBANK0 0065  
                              ___lwdiv@dividend 0037                          _PIN_MANAGER_Initialize 163E  
                                     __pintcode 0008                                        ?___awdiv 0037  
                                      ?___awmod 0037                                        ?___lwdiv 0037  
                  ??_INTERRUPT_InterruptManager 0035                                     __smallconst 0F00  
                             ??_CCP2_Initialize 0039                                        _BAUDCON1 0FA7  
            _EUSART1_DefaultOverrunErrorHandler 0000                            _EUSART1_ErrorHandler 0065  
                       _EUSART1_SetErrorHandler 174A                                ___lwdiv@quotient 003B  
                          _INTERRUPT_Initialize 175E         EUSART1_SetErrorHandler@interruptHandler 0037  
                                      _PIE3bits 0FA3                            _CCP2_DefaultCallBack 1762  
                                     _videEcran 171E                                        _PIR1bits 0F9E  
                                      _PIR3bits 0FA4                                        _RCONbits 0FD0  
                                     _vfpfcnvrt 0F2A                               ??_TMR1_Initialize 0037  
                                    vfpfcnvrt@c 004D                                     _INTCON2bits 0FF1  
                         ?_INTERRUPT_Initialize 0031                           ?_CCP2_DefaultCallBack 0031  
                                      __Hrparam 0000                                      ?_videEcran 0031  
                                    vfprintf@ap 0051                                        __Lrparam 0000  
                                    vfprintf@fp 004E                         Capture_CallBack@oldHaut 0027  
                       ??_OSCILLATOR_Initialize 0037                                      ?_vfpfcnvrt 0042  
                     ??_EUSART1_SetErrorHandler 0039                     _EUSART1_DefaultErrorHandler 0000  
                               ___lwdiv@divisor 0039                                 ___lwdiv@counter 003D  
                                      __ptext10 16F8                                        __ptext11 16E2  
                                      __ptext20 1740                                        __ptext12 1472  
                                      __ptext21 174A                                        __ptext13 16C8  
                                    _T1GCONbits 0FAA                                        __ptext22 168C  
                                      __ptext14 1666                                        __ptext23 1754  
                                      __ptext15 163E                                        __ptext16 170C  
                                      __ptext25 15E4                                        __ptext17 175E  
                                      __ptext26 1762                                        __ptext18 1572  
                                      __ptext27 14E6                                        __ptext19 1736  
                                      __ptext28 0000                                 _CCP2_CaptureISR 15E4  
EUSART1_SetOverrunErrorHandler@interruptHandler 0037                                        isa$xinst 0000  
                                      int$flags 0059                                        _vfprintf 1530  
            __end_of_INTERRUPT_InterruptManager 004C                      _INTERRUPT_InterruptManager 0008  
                                     printf@fmt 0060                     _EUSART1_FramingErrorHandler 0054  
                                    _INTCONbits 0FF2                                _CCP2_SetCallBack 1754  
                        Capture_CallBack@oldBas 0025                          ??_INTERRUPT_Initialize 0037  
                                      intlevel2 0000                         ?_PIN_MANAGER_Initialize 0031  
                        ??_CCP2_DefaultCallBack 0033          __end_of_EUSART1_SetOverrunErrorHandler 1740  
                _EUSART1_SetOverrunErrorHandler 1736                                      _RCSTA1bits 0FAB  
                                   ??_videEcran 0038                                 _CCP2_Initialize 168C  
                                      printf@ap 0053  EUSART1_SetFramingErrorHandler@interruptHandler 0037  
                                   ??_vfpfcnvrt 0046                              _eusart1RxLastError 0030  
                         CCP2_CaptureISR@module 0033                         __end_of_CCP2_CaptureISR 1612  
                __end_of_PIN_MANAGER_Initialize 1666                                 _TMR1_Initialize 1666  
