

Microchip MPLAB XC8 Assembler V2.45 build 20230818022343 
                                                                                               Tue Feb 04 10:31:52 2025

Microchip MPLAB XC8 C Compiler v2.45 (Free license) build 20230818022343 Og1 
     1                           	processor	18F25K80
     2                           	fnconf	rparam,??,?,0
     3                           	pagewidth 120
     4                           	opt	flic
     5                           	psect	nvBANK0,global,class=BANK0,space=1,delta=1,lowdata,noexec
     6                           	psect	cinit,global,reloc=2,class=CODE,delta=1
     7                           	psect	bssCOMRAM,global,class=COMRAM,space=1,delta=1,lowdata,noexec
     8                           	psect	bssBANK0,global,class=BANK0,space=1,delta=1,lowdata,noexec
     9                           	psect	cstackBANK0,global,class=BANK0,space=1,delta=1,lowdata,noexec
    10                           	psect	cstackCOMRAM,global,class=COMRAM,space=1,delta=1,lowdata,noexec
    11                           	psect	text0,global,reloc=2,class=CODE,delta=1
    12                           	psect	text1,global,reloc=2,class=CODE,delta=1
    13                           	psect	text2,global,reloc=2,class=CODE,delta=1,group=1
    14                           	psect	text3,global,reloc=2,class=CODE,delta=1,group=1
    15                           	psect	text4,global,reloc=2,class=CODE,delta=1,group=1
    16                           	psect	text5,global,reloc=2,class=CODE,delta=1
    17                           	psect	text6,global,reloc=2,class=CODE,delta=1
    18                           	psect	text7,global,reloc=2,class=CODE,delta=1
    19                           	psect	text8,global,reloc=2,class=CODE,delta=1
    20                           	psect	text9,global,reloc=2,class=CODE,delta=1
    21                           	psect	text10,global,reloc=2,class=CODE,delta=1
    22                           	psect	text11,global,reloc=2,class=CODE,delta=1
    23                           	psect	text12,global,reloc=2,class=CODE,delta=1
    24                           	psect	text13,global,reloc=2,class=CODE,delta=1
    25                           	psect	text14,global,reloc=2,class=CODE,delta=1
    26                           	psect	text15,global,reloc=2,class=CODE,delta=1
    27                           	psect	text16,global,reloc=2,class=CODE,delta=1
    28                           	psect	text17,global,reloc=2,class=CODE,delta=1
    29                           	psect	text18,global,reloc=2,class=CODE,delta=1
    30                           	psect	intcode,global,reloc=2,class=CODE,delta=1
    31                           	psect	text20,global,reloc=2,class=CODE,delta=1
    32                           	psect	text21,global,reloc=2,class=CODE,delta=1
    33                           	psect	text22,global,reloc=2,class=CODE,delta=1
    34                           	psect	text23,global,reloc=2,class=CODE,delta=1
    35                           	psect	text24,global,reloc=2,class=CODE,delta=1
    36                           	psect	text25,global,reloc=2,class=CODE,delta=1
    37                           	psect	smallconst,global,reloc=2,class=SMALLCONST,delta=1,noexec
    38                           	psect	intsave_regs,global,class=BIGRAM,space=1,delta=1,noexec
    39                           	psect	text26,global,reloc=2,class=CODE,delta=1
    40                           	psect	rparam,global,class=COMRAM,space=1,delta=1,noexec
    41                           	psect	temp,global,ovrld,common,class=COMRAM,space=1,delta=1
    42                           	psect	config,global,abs,ovrld,class=CONFIG,space=4,delta=1,noexec
    43   000000                     
    44                           ; Generated 21/07/2023 GMT
    45                           ; 
    46                           ; Copyright © 2023, Microchip Technology Inc. and its subsidiaries ("Microchip")
    47                           ; All rights reserved.
    48                           ; 
    49                           ; This software is developed by Microchip Technology Inc. and its subsidiaries ("Microch
      +                          ip").
    50                           ; 
    51                           ; Redistribution and use in source and binary forms, with or without modification, are
    52                           ; permitted provided that the following conditions are met:
    53                           ; 
    54                           ;     1. Redistributions of source code must retain the above copyright notice, this lis
      +                          t of
    55                           ;        conditions and the following disclaimer.
    56                           ; 
    57                           ;     2. Redistributions in binary form must reproduce the above copyright notice, this 
      +                          list
    58                           ;        of conditions and the following disclaimer in the documentation and/or other
    59                           ;        materials provided with the distribution. Publication is not required when
    60                           ;        this file is used in an embedded application.
    61                           ; 
    62                           ;     3. Microchip's name may not be used to endorse or promote products derived from th
      +                          is
    63                           ;        software without specific prior written permission.
    64                           ; 
    65                           ; THIS SOFTWARE IS PROVIDED BY MICROCHIP "AS IS" AND ANY EXPRESS OR IMPLIED WARRANTIES,
    66                           ; INCLUDING, BUT NOT LIMITED TO, THE IMPLIED WARRANTIES OF MERCHANTABILITY AND FITNESS F
      +                          OR
    67                           ; PURPOSE ARE DISCLAIMED.  IN NO EVENT SHALL MICROCHIP BE LIABLE FOR ANY DIRECT, INDIREC
      +                          T,
    68                           ; INCIDENTAL, SPECIAL, EXEMPLARY, OR CONSEQUENTIAL DAMAGES (INCLUDING BUT NOT LIMITED TO
    69                           ; PROCUREMENT OF SUBSTITUTE GOODS OR SERVICES; LOSS OF USE, DATA OR PROFITS; OR BUSINESS
    70                           ; INTERRUPTION) HOWSOEVER CAUSED AND ON ANY THEORY OF LIABILITY, WHETHER IN CONTRACT, ST
      +                          RICT
    71                           ; LIABILITY, OR TORT (INCLUDING NEGLIGENCE OR OTHERWISE) ARISING IN ANY WAY OUT OF THE U
      +                          SE OF
    72                           ; THIS SOFTWARE, EVEN IF ADVISED OF THE POSSIBILITY OF SUCH DAMAGE.
    73                           ; 
    74                           ; 
    75                           ; Code-generator required, PIC18F25K80 Definitions
    76                           ; 
    77                           ; SFR Addresses
    78   000000                     _RCREG1	set	4014
    79   000000                     _TXREG1	set	4013
    80   000000                     _SPBRG1	set	4015
    81   000000                     _TXSTA1	set	4012
    82                           
    83                           	psect	nvBANK0
    84   000070                     __pnvBANK0:
    85                           	callstack 0
    86   000070                     _EUSART1_ErrorHandler:
    87                           	callstack 0
    88   000070                     	ds	2
    89   000072                     _EUSART1_OverrunErrorHandler:
    90                           	callstack 0
    91   000072                     	ds	2
    92   000074                     _EUSART1_FramingErrorHandler:
    93                           	callstack 0
    94   000074                     	ds	2
    95   000076                     _EUSART1_RxDefaultInterruptHandler:
    96                           	callstack 0
    97   000076                     	ds	2
    98   000078                     _EUSART1_TxDefaultInterruptHandler:
    99                           	callstack 0
   100   000078                     	ds	2
   101   000000                     _RCSTA1bits	set	4011
   102   000000                     _TXSTA1bits	set	4012
   103   000000                     _T2CONbits	set	4042
   104   000000                     _CCP2CON	set	3920
   105   000000                     _WPUB	set	3931
   106   000000                     _ANCON1	set	3932
   107   000000                     _ANCON0	set	3933
   108   000000                     _SPBRGH1	set	3965
   109   000000                     _REFOCON	set	3994
   110   000000                     _OSCTUNE	set	3995
   111   000000                     _OSCCON2	set	4050
   112   000000                     _OSCCON	set	4051
   113   000000                     _INTCON2bits	set	4081
   114   000000                     _PIE1bits	set	3997
   115   000000                     _PIR1bits	set	3998
   116   000000                     _PR2	set	4043
   117   000000                     _RCONbits	set	4048
   118   000000                     _TMR2	set	4044
   119   000000                     _BAUDCON1	set	4007
   120   000000                     _T2CON	set	4042
   121   000000                     _RCSTA1	set	4011
   122   000000                     _LATA	set	3977
   123   000000                     _TRISA	set	3986
   124   000000                     _LATC	set	3979
   125   000000                     _LATB	set	3978
   126   000000                     _CCPTMRSbits	set	3993
   127   000000                     _TRISC	set	3988
   128   000000                     _TRISB	set	3987
   129   000000                     _INTCONbits	set	4082
   130   000000                     _CCPR2H	set	3922
   131   000000                     _CCPR2L	set	3921
   132                           
   133                           ; #config settings
   134                           
   135                           	psect	cinit
   136   001B38                     __pcinit:
   137                           	callstack 0
   138   001B38                     start_initialization:
   139                           	callstack 0
   140   001B38                     __initialization:
   141                           	callstack 0
   142                           
   143                           ; Clear objects allocated to BANK0 (16 bytes)
   144   001B38  EE00  F060         	lfsr	0,__pbssBANK0
   145   001B3C  0E10               	movlw	16
   146   001B3E                     clear_0:
   147   001B3E  6AEE               	clrf	postinc0,c
   148   001B40  06E8               	decf	wreg,f,c
   149   001B42  E1FD               	bnz	clear_0
   150                           
   151                           ; Clear objects allocated to COMRAM (15 bytes)
   152   001B44  EE00  F04B         	lfsr	0,__pbssCOMRAM
   153   001B48  0E0F               	movlw	15
   154   001B4A                     clear_1:
   155   001B4A  6AEE               	clrf	postinc0,c
   156   001B4C  06E8               	decf	wreg,f,c
   157   001B4E  E1FD               	bnz	clear_1
   158   001B50                     end_of_initialization:
   159                           	callstack 0
   160   001B50                     __end_of__initialization:
   161                           	callstack 0
   162   001B50  905A               	bcf	int$flags,0,c	;clear compiler interrupt flag (level 1)
   163   001B52  925A               	bcf	int$flags,1,c	;clear compiler interrupt flag (level 2)
   164   001B54  0E00               	movlw	low (__Lmediumconst shr (0+16))
   165   001B56  6EF8               	movwf	tblptru,c
   166   001B58  0100               	movlb	0
   167   001B5A  EF9D  F00C         	goto	_main	;jump to C main() function
   168                           
   169                           	psect	bssCOMRAM
   170   00004B                     __pbssCOMRAM:
   171                           	callstack 0
   172   00004B                     _eusart1RxStatusBuffer:
   173                           	callstack 0
   174   00004B                     	ds	8
   175   000053                     _eusart1RxLastError:
   176                           	callstack 0
   177   000053                     	ds	1
   178   000054                     _eusart1RxCount:
   179                           	callstack 0
   180   000054                     	ds	1
   181   000055                     _eusart1RxTail:
   182                           	callstack 0
   183   000055                     	ds	1
   184   000056                     _eusart1RxHead:
   185                           	callstack 0
   186   000056                     	ds	1
   187   000057                     _eusart1TxBufferRemaining:
   188                           	callstack 0
   189   000057                     	ds	1
   190   000058                     _eusart1TxTail:
   191                           	callstack 0
   192   000058                     	ds	1
   193   000059                     _eusart1TxHead:
   194                           	callstack 0
   195   000059                     	ds	1
   196                           
   197                           	psect	bssBANK0
   198   000060                     __pbssBANK0:
   199                           	callstack 0
   200   000060                     _eusart1RxBuffer:
   201                           	callstack 0
   202   000060                     	ds	8
   203   000068                     _eusart1TxBuffer:
   204                           	callstack 0
   205   000068                     	ds	8
   206                           
   207                           	psect	cstackBANK0
   208   00007A                     __pcstackBANK0:
   209                           	callstack 0
   210   00007A                     ??_PWM2_LoadDutyValue:
   211                           
   212                           ; 1 bytes @ 0x0
   213   00007A                     	ds	2
   214   00007C                     ??_main:
   215                           
   216                           ; 1 bytes @ 0x2
   217   00007C                     	ds	2
   218                           
   219                           	psect	cstackCOMRAM
   220   000001                     __pcstackCOMRAM:
   221                           	callstack 0
   222   000001                     ??_INTERRUPT_InterruptManager:
   223   000001                     
   224                           ; 1 bytes @ 0x0
   225   000001                     	ds	4
   226   000005                     ?___fldiv:
   227                           	callstack 0
   228   000005                     EUSART1_Read@readValue:
   229                           	callstack 0
   230   000005                     EUSART1_SetFramingErrorHandler@interruptHandler:
   231                           	callstack 0
   232   000005                     EUSART1_SetOverrunErrorHandler@interruptHandler:
   233                           	callstack 0
   234   000005                     EUSART1_SetErrorHandler@interruptHandler:
   235                           	callstack 0
   236   000005                     EUSART1_SetTxInterruptHandler@interruptHandler:
   237                           	callstack 0
   238   000005                     EUSART1_SetRxInterruptHandler@interruptHandler:
   239                           	callstack 0
   240   000005                     ___fldiv@b:
   241                           	callstack 0
   242                           
   243                           ; 4 bytes @ 0x4
   244   000005                     	ds	2
   245   000007                     
   246                           ; 1 bytes @ 0x6
   247   000007                     	ds	2
   248   000009                     ___fldiv@a:
   249                           	callstack 0
   250                           
   251                           ; 4 bytes @ 0x8
   252   000009                     	ds	4
   253   00000D                     ??___fldiv:
   254                           
   255                           ; 1 bytes @ 0xC
   256   00000D                     	ds	4
   257   000011                     ___fldiv@rem:
   258                           	callstack 0
   259                           
   260                           ; 4 bytes @ 0x10
   261   000011                     	ds	4
   262   000015                     ___fldiv@sign:
   263                           	callstack 0
   264                           
   265                           ; 1 bytes @ 0x14
   266   000015                     	ds	1
   267   000016                     ___fldiv@new_exp:
   268                           	callstack 0
   269                           
   270                           ; 2 bytes @ 0x15
   271   000016                     	ds	2
   272   000018                     ___fldiv@grs:
   273                           	callstack 0
   274                           
   275                           ; 4 bytes @ 0x17
   276   000018                     	ds	4
   277   00001C                     ___fldiv@bexp:
   278                           	callstack 0
   279                           
   280                           ; 1 bytes @ 0x1B
   281   00001C                     	ds	1
   282   00001D                     ___fldiv@aexp:
   283                           	callstack 0
   284                           
   285                           ; 1 bytes @ 0x1C
   286   00001D                     	ds	1
   287   00001E                     ?___flmul:
   288                           	callstack 0
   289   00001E                     ___flmul@b:
   290                           	callstack 0
   291                           
   292                           ; 4 bytes @ 0x1D
   293   00001E                     	ds	4
   294   000022                     ___flmul@a:
   295                           	callstack 0
   296                           
   297                           ; 4 bytes @ 0x21
   298   000022                     	ds	4
   299   000026                     ??___flmul:
   300                           
   301                           ; 1 bytes @ 0x25
   302   000026                     	ds	4
   303   00002A                     ___flmul@sign:
   304                           	callstack 0
   305                           
   306                           ; 1 bytes @ 0x29
   307   00002A                     	ds	1
   308   00002B                     ___flmul@grs:
   309                           	callstack 0
   310                           
   311                           ; 4 bytes @ 0x2A
   312   00002B                     	ds	4
   313   00002F                     ___flmul@aexp:
   314                           	callstack 0
   315                           
   316                           ; 1 bytes @ 0x2E
   317   00002F                     	ds	1
   318   000030                     ___flmul@bexp:
   319                           	callstack 0
   320                           
   321                           ; 1 bytes @ 0x2F
   322   000030                     	ds	1
   323   000031                     ___flmul@prod:
   324                           	callstack 0
   325                           
   326                           ; 4 bytes @ 0x30
   327   000031                     	ds	4
   328   000035                     ___flmul@temp:
   329                           	callstack 0
   330                           
   331                           ; 2 bytes @ 0x34
   332   000035                     	ds	2
   333   000037                     ?___fltol:
   334                           	callstack 0
   335   000037                     ___fltol@f1:
   336                           	callstack 0
   337                           
   338                           ; 4 bytes @ 0x36
   339   000037                     	ds	4
   340   00003B                     ??___fltol:
   341                           
   342                           ; 1 bytes @ 0x3A
   343   00003B                     	ds	4
   344   00003F                     ___fltol@sign1:
   345                           	callstack 0
   346                           
   347                           ; 1 bytes @ 0x3E
   348   00003F                     	ds	1
   349   000040                     ___fltol@exp1:
   350                           	callstack 0
   351                           
   352                           ; 1 bytes @ 0x3F
   353   000040                     	ds	1
   354   000041                     ?_trouver_CCPR:
   355                           	callstack 0
   356   000041                     trouver_CCPR@dutyCycle:
   357                           	callstack 0
   358                           
   359                           ; 4 bytes @ 0x40
   360   000041                     	ds	4
   361   000045                     _trouver_CCPR$1477:
   362                           	callstack 0
   363                           
   364                           ; 4 bytes @ 0x44
   365   000045                     	ds	4
   366   000049                     PWM2_LoadDutyValue@dutyValue:
   367                           	callstack 0
   368                           
   369                           ; 2 bytes @ 0x48
   370   000049                     	ds	2
   371                           
   372 ;;
   373 ;;Main: autosize = 0, tempsize = 2, incstack = 0, save=0
   374 ;;
   375 ;; *************** function _main *****************
   376 ;; Defined at:
   377 ;;		line 52 in file "main.c"
   378 ;; Parameters:    Size  Location     Type
   379 ;;		None
   380 ;; Auto vars:     Size  Location     Type
   381 ;;		None
   382 ;; Return value:  Size  Location     Type
   383 ;;                  1    wreg      void 
   384 ;; Registers used:
   385 ;;		wreg, fsr2l, fsr2h, status,2, status,0, prodl, prodh, cstack
   386 ;; Tracked objects:
   387 ;;		On entry : 0/0
   388 ;;		On exit  : 0/0
   389 ;;		Unchanged: 0/0
   390 ;; Data sizes:     COMRAM   BANK0   BANK1   BANK2   BANK3   BANK4   BANK5   BANK6   BANK7   BANK8   BANK9  BANK10  BANK1
      +1  BANK12  BANK13  BANK14
   391 ;;      Params:         0       0       0       0       0       0       0       0       0       0       0       0       
      +0       0       0       0
   392 ;;      Locals:         0       0       0       0       0       0       0       0       0       0       0       0       
      +0       0       0       0
   393 ;;      Temps:          0       2       0       0       0       0       0       0       0       0       0       0       
      +0       0       0       0
   394 ;;      Totals:         0       2       0       0       0       0       0       0       0       0       0       0       
      +0       0       0       0
   395 ;;Total ram usage:        2 bytes
   396 ;; Hardware stack levels required when called: 7
   397 ;; This function calls:
   398 ;;		_EUSART1_Read
   399 ;;		_PWM2_LoadDutyValue
   400 ;;		_SYSTEM_Initialize
   401 ;;		_trouver_CCPR
   402 ;; This function is called by:
   403 ;;		Startup code after reset
   404 ;; This function uses a non-reentrant model
   405 ;;
   406                           
   407                           	psect	text0
   408   00193A                     __ptext0:
   409                           	callstack 0
   410   00193A                     _main:
   411                           	callstack 24
   412   00193A                     
   413                           ;main.c: 55:     SYSTEM_Initialize();
   414   00193A  ECC2  F00D         	call	_SYSTEM_Initialize	;wreg free
   415   00193E                     
   416                           ;main.c: 62:     (INTCONbits.GIE = 1);
   417   00193E  8EF2               	bsf	242,7,c	;volatile
   418   001940                     
   419                           ;main.c: 68:     (INTCONbits.PEIE = 1);
   420   001940  8CF2               	bsf	242,6,c	;volatile
   421   001942                     
   422                           ;main.c: 73:     PWM2_LoadDutyValue(trouver_CCPR (7.5));
   423   001942  0E00               	movlw	0
   424   001944  6E41               	movwf	trouver_CCPR@dutyCycle^0,c
   425   001946  0E00               	movlw	0
   426   001948  6E42               	movwf	(trouver_CCPR@dutyCycle+1)^0,c
   427   00194A  0EF0               	movlw	240
   428   00194C  6E43               	movwf	(trouver_CCPR@dutyCycle+2)^0,c
   429   00194E  0E40               	movlw	64
   430   001950  6E44               	movwf	(trouver_CCPR@dutyCycle+3)^0,c
   431   001952  ECE6  F00B         	call	_trouver_CCPR	;wreg free
   432   001956  C041  F049         	movff	?_trouver_CCPR,PWM2_LoadDutyValue@dutyValue
   433   00195A  C042  F04A         	movff	?_trouver_CCPR+1,PWM2_LoadDutyValue@dutyValue+1
   434   00195E  EC4C  F00D         	call	_PWM2_LoadDutyValue	;wreg free
   435   001962  EFD5  F00C         	goto	l2042
   436   001966                     l2036:
   437                           
   438                           ; BSR set to: 0
   439                           ;main.c: 78:                  PWM2_LoadDutyValue(trouver_CCPR (11.5));
   440   001966  0E00               	movlw	0
   441   001968  6E41               	movwf	trouver_CCPR@dutyCycle^0,c
   442   00196A  0E00               	movlw	0
   443   00196C  6E42               	movwf	(trouver_CCPR@dutyCycle+1)^0,c
   444   00196E  0E38               	movlw	56
   445   001970  6E43               	movwf	(trouver_CCPR@dutyCycle+2)^0,c
   446   001972  0E41               	movlw	65
   447   001974  6E44               	movwf	(trouver_CCPR@dutyCycle+3)^0,c
   448   001976  ECE6  F00B         	call	_trouver_CCPR	;wreg free
   449   00197A  C041  F049         	movff	?_trouver_CCPR,PWM2_LoadDutyValue@dutyValue
   450   00197E  C042  F04A         	movff	?_trouver_CCPR+1,PWM2_LoadDutyValue@dutyValue+1
   451   001982  EC4C  F00D         	call	_PWM2_LoadDutyValue	;wreg free
   452                           
   453                           ;main.c: 79:                 break;
   454   001986  EFD5  F00C         	goto	l2042
   455   00198A                     l2038:
   456                           
   457                           ; BSR set to: 0
   458                           ;main.c: 81:                  PWM2_LoadDutyValue(trouver_CCPR (3.5));
   459   00198A  0E00               	movlw	0
   460   00198C  6E41               	movwf	trouver_CCPR@dutyCycle^0,c
   461   00198E  0E00               	movlw	0
   462   001990  6E42               	movwf	(trouver_CCPR@dutyCycle+1)^0,c
   463   001992  0E60               	movlw	96
   464   001994  6E43               	movwf	(trouver_CCPR@dutyCycle+2)^0,c
   465   001996  0E40               	movlw	64
   466   001998  6E44               	movwf	(trouver_CCPR@dutyCycle+3)^0,c
   467   00199A  ECE6  F00B         	call	_trouver_CCPR	;wreg free
   468   00199E  C041  F049         	movff	?_trouver_CCPR,PWM2_LoadDutyValue@dutyValue
   469   0019A2  C042  F04A         	movff	?_trouver_CCPR+1,PWM2_LoadDutyValue@dutyValue+1
   470   0019A6  EC4C  F00D         	call	_PWM2_LoadDutyValue	;wreg free
   471   0019AA                     l2042:
   472   0019AA  EC28  F00D         	call	_EUSART1_Read	;wreg free
   473   0019AE  0100               	movlb	0	; () banked
   474   0019B0  6F7C               	movwf	??_main& (0+255),b
   475   0019B2  6B7D               	clrf	(??_main+1)& (0+255),b
   476                           
   477                           ; Switch on 2 bytes has been partitioned into a top level switch of size 1, and 1 sub-sw
      +                          itches
   478                           ; Switch size 1, requested type "simple"
   479                           ; Number of cases is 1, Range of values is 0 to 0
   480                           ; switch strategies available:
   481                           ; Name         Instructions Cycles
   482                           ; simple_byte            4     3 (average)
   483                           ;	Chosen strategy is simple_byte
   484   0019B4  517D               	movf	(??_main+1)& (0+255),w,b
   485   0019B6  0A00               	xorlw	0	; case 0
   486   0019B8  B4D8               	btfsc	status,2,c
   487   0019BA  EFE1  F00C         	goto	l2068
   488   0019BE  EFD5  F00C         	goto	l2042
   489   0019C2                     l2068:
   490                           
   491                           ; BSR set to: 0
   492                           ; Switch size 1, requested type "simple"
   493                           ; Number of cases is 2, Range of values is 76 to 85
   494                           ; switch strategies available:
   495                           ; Name         Instructions Cycles
   496                           ; simple_byte            7     4 (average)
   497                           ;	Chosen strategy is simple_byte
   498   0019C2  517C               	movf	??_main& (0+255),w,b
   499   0019C4  0A4C               	xorlw	76	; case 76
   500   0019C6  B4D8               	btfsc	status,2,c
   501   0019C8  EFB3  F00C         	goto	l2036
   502   0019CC  0A19               	xorlw	25	; case 85
   503   0019CE  B4D8               	btfsc	status,2,c
   504   0019D0  EFC5  F00C         	goto	l2038
   505   0019D4  EFD5  F00C         	goto	l2042
   506   0019D8  EF5A  F000         	goto	start
   507   0019DC                     __end_of_main:
   508                           	callstack 0
   509                           
   510 ;; *************** function _trouver_CCPR *****************
   511 ;; Defined at:
   512 ;;		line 86 in file "main.c"
   513 ;; Parameters:    Size  Location     Type
   514 ;;  dutyCycle       4   64[COMRAM] void 
   515 ;; Auto vars:     Size  Location     Type
   516 ;;		None
   517 ;; Return value:  Size  Location     Type
   518 ;;                  2   64[COMRAM] int 
   519 ;; Registers used:
   520 ;;		wreg, status,2, status,0, prodl, prodh, cstack
   521 ;; Tracked objects:
   522 ;;		On entry : 0/0
   523 ;;		On exit  : 0/0
   524 ;;		Unchanged: 0/0
   525 ;; Data sizes:     COMRAM   BANK0   BANK1   BANK2   BANK3   BANK4   BANK5   BANK6   BANK7   BANK8   BANK9  BANK10  BANK1
      +1  BANK12  BANK13  BANK14
   526 ;;      Params:         4       0       0       0       0       0       0       0       0       0       0       0       
      +0       0       0       0
   527 ;;      Locals:         4       0       0       0       0       0       0       0       0       0       0       0       
      +0       0       0       0
   528 ;;      Temps:          0       0       0       0       0       0       0       0       0       0       0       0       
      +0       0       0       0
   529 ;;      Totals:         8       0       0       0       0       0       0       0       0       0       0       0       
      +0       0       0       0
   530 ;;Total ram usage:        8 bytes
   531 ;; Hardware stack levels used: 1
   532 ;; Hardware stack levels required when called: 5
   533 ;; This function calls:
   534 ;;		___fldiv
   535 ;;		___flmul
   536 ;;		___fltol
   537 ;; This function is called by:
   538 ;;		_main
   539 ;; This function uses a non-reentrant model
   540 ;;
   541                           
   542                           	psect	text1
   543   0017CC                     __ptext1:
   544                           	callstack 0
   545   0017CC                     _trouver_CCPR:
   546                           	callstack 25
   547   0017CC                     
   548                           ;main.c: 87:     return (((dutyCycle)/100*19.968)/32.768*1023);
   549   0017CC  0E77               	movlw	119
   550   0017CE  6E22               	movwf	___flmul@a^0,c
   551   0017D0  0EBE               	movlw	190
   552   0017D2  6E23               	movwf	(___flmul@a+1)^0,c
   553   0017D4  0E9F               	movlw	159
   554   0017D6  6E24               	movwf	(___flmul@a+2)^0,c
   555   0017D8  0E41               	movlw	65
   556   0017DA  6E25               	movwf	(___flmul@a+3)^0,c
   557   0017DC  0E00               	movlw	0
   558   0017DE  6E09               	movwf	___fldiv@a^0,c
   559   0017E0  0E00               	movlw	0
   560   0017E2  6E0A               	movwf	(___fldiv@a+1)^0,c
   561   0017E4  0EC8               	movlw	200
   562   0017E6  6E0B               	movwf	(___fldiv@a+2)^0,c
   563   0017E8  0E42               	movlw	66
   564   0017EA  6E0C               	movwf	(___fldiv@a+3)^0,c
   565   0017EC  C041  F005         	movff	trouver_CCPR@dutyCycle,___fldiv@b
   566   0017F0  C042  F006         	movff	trouver_CCPR@dutyCycle+1,___fldiv@b+1
   567   0017F4  C043  F007         	movff	trouver_CCPR@dutyCycle+2,___fldiv@b+2
   568   0017F8  C044  F008         	movff	trouver_CCPR@dutyCycle+3,___fldiv@b+3
   569   0017FC  EC96  F009         	call	___fldiv	;wreg free
   570   001800  C005  F01E         	movff	?___fldiv,___flmul@b
   571   001804  C006  F01F         	movff	?___fldiv+1,___flmul@b+1
   572   001808  C007  F020         	movff	?___fldiv+2,___flmul@b+2
   573   00180C  C008  F021         	movff	?___fldiv+3,___flmul@b+3
   574   001810  EC81  F007         	call	___flmul	;wreg free
   575   001814  C01E  F045         	movff	?___flmul,_trouver_CCPR$1477
   576   001818  C01F  F046         	movff	?___flmul+1,_trouver_CCPR$1477+1
   577   00181C  C020  F047         	movff	?___flmul+2,_trouver_CCPR$1477+2
   578   001820  C021  F048         	movff	?___flmul+3,_trouver_CCPR$1477+3
   579                           
   580                           ;main.c: 87:     return (((dutyCycle)/100*19.968)/32.768*1023);
   581   001824  0E00               	movlw	0
   582   001826  6E22               	movwf	___flmul@a^0,c
   583   001828  0EC0               	movlw	192
   584   00182A  6E23               	movwf	(___flmul@a+1)^0,c
   585   00182C  0E7F               	movlw	127
   586   00182E  6E24               	movwf	(___flmul@a+2)^0,c
   587   001830  0E44               	movlw	68
   588   001832  6E25               	movwf	(___flmul@a+3)^0,c
   589   001834  0E6F               	movlw	111
   590   001836  6E09               	movwf	___fldiv@a^0,c
   591   001838  0E12               	movlw	18
   592   00183A  6E0A               	movwf	(___fldiv@a+1)^0,c
   593   00183C  0E03               	movlw	3
   594   00183E  6E0B               	movwf	(___fldiv@a+2)^0,c
   595   001840  0E42               	movlw	66
   596   001842  6E0C               	movwf	(___fldiv@a+3)^0,c
   597   001844  C045  F005         	movff	_trouver_CCPR$1477,___fldiv@b
   598   001848  C046  F006         	movff	_trouver_CCPR$1477+1,___fldiv@b+1
   599   00184C  C047  F007         	movff	_trouver_CCPR$1477+2,___fldiv@b+2
   600   001850  C048  F008         	movff	_trouver_CCPR$1477+3,___fldiv@b+3
   601   001854  EC96  F009         	call	___fldiv	;wreg free
   602   001858  C005  F01E         	movff	?___fldiv,___flmul@b
   603   00185C  C006  F01F         	movff	?___fldiv+1,___flmul@b+1
   604   001860  C007  F020         	movff	?___fldiv+2,___flmul@b+2
   605   001864  C008  F021         	movff	?___fldiv+3,___flmul@b+3
   606   001868  EC81  F007         	call	___flmul	;wreg free
   607   00186C  C01E  F037         	movff	?___flmul,___fltol@f1
   608   001870  C01F  F038         	movff	?___flmul+1,___fltol@f1+1
   609   001874  C020  F039         	movff	?___flmul+2,___fltol@f1+2
   610   001878  C021  F03A         	movff	?___flmul+3,___fltol@f1+3
   611   00187C  EC63  F00B         	call	___fltol	;wreg free
   612   001880  C037  F041         	movff	?___fltol,?_trouver_CCPR
   613   001884  C038  F042         	movff	?___fltol+1,?_trouver_CCPR+1
   614   001888  0012               	return		;funcret
   615   00188A                     __end_of_trouver_CCPR:
   616                           	callstack 0
   617                           
   618 ;; *************** function ___fltol *****************
   619 ;; Defined at:
   620 ;;		line 43 in file "C:\Program Files\Microchip\xc8\v2.45\pic\sources\c99\common\fltol.c"
   621 ;; Parameters:    Size  Location     Type
   622 ;;  f1              4   54[COMRAM] int 
   623 ;; Auto vars:     Size  Location     Type
   624 ;;  exp1            1   63[COMRAM] unsigned char 
   625 ;;  sign1           1   62[COMRAM] unsigned char 
   626 ;; Return value:  Size  Location     Type
   627 ;;                  4   54[COMRAM] long 
   628 ;; Registers used:
   629 ;;		wreg, status,2, status,0
   630 ;; Tracked objects:
   631 ;;		On entry : 0/0
   632 ;;		On exit  : 0/0
   633 ;;		Unchanged: 0/0
   634 ;; Data sizes:     COMRAM   BANK0   BANK1   BANK2   BANK3   BANK4   BANK5   BANK6   BANK7   BANK8   BANK9  BANK10  BANK1
      +1  BANK12  BANK13  BANK14
   635 ;;      Params:         4       0       0       0       0       0       0       0       0       0       0       0       
      +0       0       0       0
   636 ;;      Locals:         2       0       0       0       0       0       0       0       0       0       0       0       
      +0       0       0       0
   637 ;;      Temps:          4       0       0       0       0       0       0       0       0       0       0       0       
      +0       0       0       0
   638 ;;      Totals:        10       0       0       0       0       0       0       0       0       0       0       0       
      +0       0       0       0
   639 ;;Total ram usage:       10 bytes
   640 ;; Hardware stack levels used: 1
   641 ;; Hardware stack levels required when called: 4
   642 ;; This function calls:
   643 ;;		Nothing
   644 ;; This function is called by:
   645 ;;		_trouver_CCPR
   646 ;; This function uses a non-reentrant model
   647 ;;
   648                           
   649                           	psect	text2
   650   0016C6                     __ptext2:
   651                           	callstack 0
   652   0016C6                     ___fltol:
   653                           	callstack 25
   654   0016C6  3439               	rlcf	(___fltol@f1+2)^0,w,c
   655   0016C8  343A               	rlcf	(___fltol@f1+3)^0,w,c
   656   0016CA  6E40               	movwf	___fltol@exp1^0,c
   657   0016CC  5040               	movf	___fltol@exp1^0,w,c
   658   0016CE  A4D8               	btfss	status,2,c
   659   0016D0  EF6C  F00B         	goto	u1161
   660   0016D4  EF6E  F00B         	goto	u1160
   661   0016D8                     u1161:
   662   0016D8  EF78  F00B         	goto	l1844
   663   0016DC                     u1160:
   664   0016DC                     l1840:
   665   0016DC  0E00               	movlw	0
   666   0016DE  6E37               	movwf	?___fltol^0,c
   667   0016E0  0E00               	movlw	0
   668   0016E2  6E38               	movwf	(?___fltol+1)^0,c
   669   0016E4  0E00               	movlw	0
   670   0016E6  6E39               	movwf	(?___fltol+2)^0,c
   671   0016E8  0E00               	movlw	0
   672   0016EA  6E3A               	movwf	(?___fltol+3)^0,c
   673   0016EC  EFE5  F00B         	goto	l598
   674   0016F0                     l1844:
   675   0016F0  C037  F03B         	movff	___fltol@f1,??___fltol
   676   0016F4  C038  F03C         	movff	___fltol@f1+1,??___fltol+1
   677   0016F8  C039  F03D         	movff	___fltol@f1+2,??___fltol+2
   678   0016FC  C03A  F03E         	movff	___fltol@f1+3,??___fltol+3
   679   001700  0E20               	movlw	32
   680   001702  EF88  F00B         	goto	u1170
   681   001706                     u1175:
   682   001706  90D8               	bcf	status,0,c
   683   001708  323E               	rrcf	(??___fltol+3)^0,f,c
   684   00170A  323D               	rrcf	(??___fltol+2)^0,f,c
   685   00170C  323C               	rrcf	(??___fltol+1)^0,f,c
   686   00170E  323B               	rrcf	??___fltol^0,f,c
   687   001710                     u1170:
   688   001710  2EE8               	decfsz	wreg,f,c
   689   001712  EF83  F00B         	goto	u1175
   690   001716  503B               	movf	??___fltol^0,w,c
   691   001718  6E3F               	movwf	___fltol@sign1^0,c
   692   00171A  8E39               	bsf	(___fltol@f1+2)^0,7,c
   693   00171C  0EFF               	movlw	255
   694   00171E  1637               	andwf	___fltol@f1^0,f,c
   695   001720  0EFF               	movlw	255
   696   001722  1638               	andwf	(___fltol@f1+1)^0,f,c
   697   001724  0EFF               	movlw	255
   698   001726  1639               	andwf	(___fltol@f1+2)^0,f,c
   699   001728  0E00               	movlw	0
   700   00172A  163A               	andwf	(___fltol@f1+3)^0,f,c
   701   00172C  0E96               	movlw	150
   702   00172E  5E40               	subwf	___fltol@exp1^0,f,c
   703   001730  BE40               	btfsc	___fltol@exp1^0,7,c
   704   001732  EF9F  F00B         	goto	u1180
   705   001736  EF9D  F00B         	goto	u1181
   706   00173A                     u1181:
   707   00173A  EFB5  F00B         	goto	l1864
   708   00173E                     u1180:
   709   00173E  5040               	movf	___fltol@exp1^0,w,c
   710   001740  0A80               	xorlw	128
   711   001742  0F97               	addlw	151
   712   001744  B0D8               	btfsc	status,0,c
   713   001746  EFA7  F00B         	goto	u1191
   714   00174A  EFA9  F00B         	goto	u1190
   715   00174E                     u1191:
   716   00174E  EFAB  F00B         	goto	l1860
   717   001752                     u1190:
   718   001752  EF6E  F00B         	goto	l1840
   719   001756                     l1860:
   720   001756  90D8               	bcf	status,0,c
   721   001758  323A               	rrcf	(___fltol@f1+3)^0,f,c
   722   00175A  3239               	rrcf	(___fltol@f1+2)^0,f,c
   723   00175C  3238               	rrcf	(___fltol@f1+1)^0,f,c
   724   00175E  3237               	rrcf	___fltol@f1^0,f,c
   725   001760  3E40               	incfsz	___fltol@exp1^0,f,c
   726   001762  EFAB  F00B         	goto	l1860
   727   001766  EFCD  F00B         	goto	l1874
   728   00176A                     l1864:
   729   00176A  0E1F               	movlw	31
   730   00176C  6440               	cpfsgt	___fltol@exp1^0,c
   731   00176E  EFBB  F00B         	goto	u1201
   732   001772  EFBD  F00B         	goto	u1200
   733   001776                     u1201:
   734   001776  EFC5  F00B         	goto	l1872
   735   00177A                     u1200:
   736   00177A  EF6E  F00B         	goto	l1840
   737   00177E                     l1870:
   738   00177E  90D8               	bcf	status,0,c
   739   001780  3637               	rlcf	___fltol@f1^0,f,c
   740   001782  3638               	rlcf	(___fltol@f1+1)^0,f,c
   741   001784  3639               	rlcf	(___fltol@f1+2)^0,f,c
   742   001786  363A               	rlcf	(___fltol@f1+3)^0,f,c
   743   001788  0640               	decf	___fltol@exp1^0,f,c
   744   00178A                     l1872:
   745   00178A  5040               	movf	___fltol@exp1^0,w,c
   746   00178C  A4D8               	btfss	status,2,c
   747   00178E  EFCB  F00B         	goto	u1211
   748   001792  EFCD  F00B         	goto	u1210
   749   001796                     u1211:
   750   001796  EFBF  F00B         	goto	l1870
   751   00179A                     u1210:
   752   00179A                     l1874:
   753   00179A  503F               	movf	___fltol@sign1^0,w,c
   754   00179C  B4D8               	btfsc	status,2,c
   755   00179E  EFD3  F00B         	goto	u1221
   756   0017A2  EFD5  F00B         	goto	u1220
   757   0017A6                     u1221:
   758   0017A6  EFDD  F00B         	goto	l1878
   759   0017AA                     u1220:
   760   0017AA  1E3A               	comf	(___fltol@f1+3)^0,f,c
   761   0017AC  1E39               	comf	(___fltol@f1+2)^0,f,c
   762   0017AE  1E38               	comf	(___fltol@f1+1)^0,f,c
   763   0017B0  6C37               	negf	___fltol@f1^0,c
   764   0017B2  0E00               	movlw	0
   765   0017B4  2238               	addwfc	(___fltol@f1+1)^0,f,c
   766   0017B6  2239               	addwfc	(___fltol@f1+2)^0,f,c
   767   0017B8  223A               	addwfc	(___fltol@f1+3)^0,f,c
   768   0017BA                     l1878:
   769   0017BA  C037  F037         	movff	___fltol@f1,?___fltol
   770   0017BE  C038  F038         	movff	___fltol@f1+1,?___fltol+1
   771   0017C2  C039  F039         	movff	___fltol@f1+2,?___fltol+2
   772   0017C6  C03A  F03A         	movff	___fltol@f1+3,?___fltol+3
   773   0017CA                     l598:
   774   0017CA  0012               	return		;funcret
   775   0017CC                     __end_of___fltol:
   776                           	callstack 0
   777                           
   778 ;; *************** function ___flmul *****************
   779 ;; Defined at:
   780 ;;		line 8 in file "C:\Program Files\Microchip\xc8\v2.45\pic\sources\c99\common\sprcmul.c"
   781 ;; Parameters:    Size  Location     Type
   782 ;;  b               4   29[COMRAM] long 
   783 ;;  a               4   33[COMRAM] long 
   784 ;; Auto vars:     Size  Location     Type
   785 ;;  prod            4   48[COMRAM] struct .
   786 ;;  grs             4   42[COMRAM] unsigned long 
   787 ;;  temp            2   52[COMRAM] struct .
   788 ;;  bexp            1   47[COMRAM] unsigned char 
   789 ;;  aexp            1   46[COMRAM] unsigned char 
   790 ;;  sign            1   41[COMRAM] unsigned char 
   791 ;; Return value:  Size  Location     Type
   792 ;;                  4   29[COMRAM] unsigned char 
   793 ;; Registers used:
   794 ;;		wreg, status,2, status,0, prodl, prodh
   795 ;; Tracked objects:
   796 ;;		On entry : 0/0
   797 ;;		On exit  : 0/0
   798 ;;		Unchanged: 0/0
   799 ;; Data sizes:     COMRAM   BANK0   BANK1   BANK2   BANK3   BANK4   BANK5   BANK6   BANK7   BANK8   BANK9  BANK10  BANK1
      +1  BANK12  BANK13  BANK14
   800 ;;      Params:         8       0       0       0       0       0       0       0       0       0       0       0       
      +0       0       0       0
   801 ;;      Locals:        13       0       0       0       0       0       0       0       0       0       0       0       
      +0       0       0       0
   802 ;;      Temps:          4       0       0       0       0       0       0       0       0       0       0       0       
      +0       0       0       0
   803 ;;      Totals:        25       0       0       0       0       0       0       0       0       0       0       0       
      +0       0       0       0
   804 ;;Total ram usage:       25 bytes
   805 ;; Hardware stack levels used: 1
   806 ;; Hardware stack levels required when called: 4
   807 ;; This function calls:
   808 ;;		Nothing
   809 ;; This function is called by:
   810 ;;		_trouver_CCPR
   811 ;; This function uses a non-reentrant model
   812 ;;
   813                           
   814                           	psect	text3
   815   000F02                     __ptext3:
   816                           	callstack 0
   817   000F02                     ___flmul:
   818                           	callstack 25
   819   000F02  5021               	movf	(___flmul@b+3)^0,w,c
   820   000F04  0B80               	andlw	128
   821   000F06  6E2A               	movwf	___flmul@sign^0,c
   822   000F08  5021               	movf	(___flmul@b+3)^0,w,c
   823   000F0A  2421               	addwf	(___flmul@b+3)^0,w,c
   824   000F0C  6E30               	movwf	___flmul@bexp^0,c
   825   000F0E  AE20               	btfss	(___flmul@b+2)^0,7,c
   826   000F10  EF8C  F007         	goto	u971
   827   000F14  EF8E  F007         	goto	u970
   828   000F18                     u971:
   829   000F18  EF8F  F007         	goto	l1714
   830   000F1C                     u970:
   831   000F1C  8030               	bsf	___flmul@bexp^0,0,c
   832   000F1E                     l1714:
   833   000F1E  5030               	movf	___flmul@bexp^0,w,c
   834   000F20  B4D8               	btfsc	status,2,c
   835   000F22  EF95  F007         	goto	u981
   836   000F26  EF97  F007         	goto	u980
   837   000F2A                     u981:
   838   000F2A  EFAA  F007         	goto	l1722
   839   000F2E                     u980:
   840   000F2E  2830               	incf	___flmul@bexp^0,w,c
   841   000F30  A4D8               	btfss	status,2,c
   842   000F32  EF9D  F007         	goto	u991
   843   000F36  EF9F  F007         	goto	u990
   844   000F3A                     u991:
   845   000F3A  EFA7  F007         	goto	l1720
   846   000F3E                     u990:
   847   000F3E  0E00               	movlw	0
   848   000F40  6E1E               	movwf	___flmul@b^0,c
   849   000F42  0E00               	movlw	0
   850   000F44  6E1F               	movwf	(___flmul@b+1)^0,c
   851   000F46  0E00               	movlw	0
   852   000F48  6E20               	movwf	(___flmul@b+2)^0,c
   853   000F4A  0E00               	movlw	0
   854   000F4C  6E21               	movwf	(___flmul@b+3)^0,c
   855   000F4E                     l1720:
   856   000F4E  8E20               	bsf	(___flmul@b+2)^0,7,c
   857   000F50  EFB2  F007         	goto	l1724
   858   000F54                     l1722:
   859   000F54  0E00               	movlw	0
   860   000F56  6E1E               	movwf	___flmul@b^0,c
   861   000F58  0E00               	movlw	0
   862   000F5A  6E1F               	movwf	(___flmul@b+1)^0,c
   863   000F5C  0E00               	movlw	0
   864   000F5E  6E20               	movwf	(___flmul@b+2)^0,c
   865   000F60  0E00               	movlw	0
   866   000F62  6E21               	movwf	(___flmul@b+3)^0,c
   867   000F64                     l1724:
   868   000F64  5025               	movf	(___flmul@a+3)^0,w,c
   869   000F66  0B80               	andlw	128
   870   000F68  1A2A               	xorwf	___flmul@sign^0,f,c
   871   000F6A  5025               	movf	(___flmul@a+3)^0,w,c
   872   000F6C  2425               	addwf	(___flmul@a+3)^0,w,c
   873   000F6E  6E2F               	movwf	___flmul@aexp^0,c
   874   000F70  AE24               	btfss	(___flmul@a+2)^0,7,c
   875   000F72  EFBD  F007         	goto	u1001
   876   000F76  EFBF  F007         	goto	u1000
   877   000F7A                     u1001:
   878   000F7A  EFC0  F007         	goto	l1732
   879   000F7E                     u1000:
   880   000F7E  802F               	bsf	___flmul@aexp^0,0,c
   881   000F80                     l1732:
   882   000F80  502F               	movf	___flmul@aexp^0,w,c
   883   000F82  B4D8               	btfsc	status,2,c
   884   000F84  EFC6  F007         	goto	u1011
   885   000F88  EFC8  F007         	goto	u1010
   886   000F8C                     u1011:
   887   000F8C  EFDB  F007         	goto	l1740
   888   000F90                     u1010:
   889   000F90  282F               	incf	___flmul@aexp^0,w,c
   890   000F92  A4D8               	btfss	status,2,c
   891   000F94  EFCE  F007         	goto	u1021
   892   000F98  EFD0  F007         	goto	u1020
   893   000F9C                     u1021:
   894   000F9C  EFD8  F007         	goto	l1738
   895   000FA0                     u1020:
   896   000FA0  0E00               	movlw	0
   897   000FA2  6E22               	movwf	___flmul@a^0,c
   898   000FA4  0E00               	movlw	0
   899   000FA6  6E23               	movwf	(___flmul@a+1)^0,c
   900   000FA8  0E00               	movlw	0
   901   000FAA  6E24               	movwf	(___flmul@a+2)^0,c
   902   000FAC  0E00               	movlw	0
   903   000FAE  6E25               	movwf	(___flmul@a+3)^0,c
   904   000FB0                     l1738:
   905   000FB0  8E24               	bsf	(___flmul@a+2)^0,7,c
   906   000FB2  EFE3  F007         	goto	l915
   907   000FB6                     l1740:
   908   000FB6  0E00               	movlw	0
   909   000FB8  6E22               	movwf	___flmul@a^0,c
   910   000FBA  0E00               	movlw	0
   911   000FBC  6E23               	movwf	(___flmul@a+1)^0,c
   912   000FBE  0E00               	movlw	0
   913   000FC0  6E24               	movwf	(___flmul@a+2)^0,c
   914   000FC2  0E00               	movlw	0
   915   000FC4  6E25               	movwf	(___flmul@a+3)^0,c
   916   000FC6                     l915:
   917   000FC6  502F               	movf	___flmul@aexp^0,w,c
   918   000FC8  B4D8               	btfsc	status,2,c
   919   000FCA  EFE9  F007         	goto	u1031
   920   000FCE  EFEB  F007         	goto	u1030
   921   000FD2                     u1031:
   922   000FD2  EFF3  F007         	goto	l1744
   923   000FD6                     u1030:
   924   000FD6  5030               	movf	___flmul@bexp^0,w,c
   925   000FD8  A4D8               	btfss	status,2,c
   926   000FDA  EFF1  F007         	goto	u1041
   927   000FDE  EFF3  F007         	goto	u1040
   928   000FE2                     u1041:
   929   000FE2  EFFD  F007         	goto	l1748
   930   000FE6                     u1040:
   931   000FE6                     l1744:
   932   000FE6  0E00               	movlw	0
   933   000FE8  6E1E               	movwf	?___flmul^0,c
   934   000FEA  0E00               	movlw	0
   935   000FEC  6E1F               	movwf	(?___flmul+1)^0,c
   936   000FEE  0E00               	movlw	0
   937   000FF0  6E20               	movwf	(?___flmul+2)^0,c
   938   000FF2  0E00               	movlw	0
   939   000FF4  6E21               	movwf	(?___flmul+3)^0,c
   940   000FF6  EF95  F009         	goto	l919
   941   000FFA                     l1748:
   942   000FFA  5024               	movf	(___flmul@a+2)^0,w,c
   943   000FFC  021E               	mulwf	___flmul@b^0,c
   944   000FFE  CFF3 F035          	movff	prodl,___flmul@temp
   945   001002  CFF4 F036          	movff	prodh,___flmul@temp+1
   946   001006  5035               	movf	___flmul@temp^0,w,c
   947   001008  6E2B               	movwf	___flmul@grs^0,c
   948   00100A  6A2C               	clrf	(___flmul@grs+1)^0,c
   949   00100C  6A2D               	clrf	(___flmul@grs+2)^0,c
   950   00100E  6A2E               	clrf	(___flmul@grs+3)^0,c
   951   001010  5036               	movf	(___flmul@temp+1)^0,w,c
   952   001012  6E31               	movwf	___flmul@prod^0,c
   953   001014  6A32               	clrf	(___flmul@prod+1)^0,c
   954   001016  6A33               	clrf	(___flmul@prod+2)^0,c
   955   001018  6A34               	clrf	(___flmul@prod+3)^0,c
   956   00101A  5023               	movf	(___flmul@a+1)^0,w,c
   957   00101C  021F               	mulwf	(___flmul@b+1)^0,c
   958   00101E  CFF3 F035          	movff	prodl,___flmul@temp
   959   001022  CFF4 F036          	movff	prodh,___flmul@temp+1
   960   001026  5035               	movf	___flmul@temp^0,w,c
   961   001028  262B               	addwf	___flmul@grs^0,f,c
   962   00102A  0E00               	movlw	0
   963   00102C  222C               	addwfc	(___flmul@grs+1)^0,f,c
   964   00102E  222D               	addwfc	(___flmul@grs+2)^0,f,c
   965   001030  222E               	addwfc	(___flmul@grs+3)^0,f,c
   966   001032  5036               	movf	(___flmul@temp+1)^0,w,c
   967   001034  2631               	addwf	___flmul@prod^0,f,c
   968   001036  0E00               	movlw	0
   969   001038  2232               	addwfc	(___flmul@prod+1)^0,f,c
   970   00103A  2233               	addwfc	(___flmul@prod+2)^0,f,c
   971   00103C  2234               	addwfc	(___flmul@prod+3)^0,f,c
   972   00103E  5022               	movf	___flmul@a^0,w,c
   973   001040  0220               	mulwf	(___flmul@b+2)^0,c
   974   001042  CFF3 F035          	movff	prodl,___flmul@temp
   975   001046  CFF4 F036          	movff	prodh,___flmul@temp+1
   976   00104A  5035               	movf	___flmul@temp^0,w,c
   977   00104C  262B               	addwf	___flmul@grs^0,f,c
   978   00104E  0E00               	movlw	0
   979   001050  222C               	addwfc	(___flmul@grs+1)^0,f,c
   980   001052  222D               	addwfc	(___flmul@grs+2)^0,f,c
   981   001054  222E               	addwfc	(___flmul@grs+3)^0,f,c
   982   001056  5036               	movf	(___flmul@temp+1)^0,w,c
   983   001058  2631               	addwf	___flmul@prod^0,f,c
   984   00105A  0E00               	movlw	0
   985   00105C  2232               	addwfc	(___flmul@prod+1)^0,f,c
   986   00105E  2233               	addwfc	(___flmul@prod+2)^0,f,c
   987   001060  2234               	addwfc	(___flmul@prod+3)^0,f,c
   988   001062  C02D  F02E         	movff	___flmul@grs+2,___flmul@grs+3
   989   001066  C02C  F02D         	movff	___flmul@grs+1,___flmul@grs+2
   990   00106A  C02B  F02C         	movff	___flmul@grs,___flmul@grs+1
   991   00106E  6A2B               	clrf	___flmul@grs^0,c
   992   001070  5022               	movf	___flmul@a^0,w,c
   993   001072  021F               	mulwf	(___flmul@b+1)^0,c
   994   001074  CFF3 F035          	movff	prodl,___flmul@temp
   995   001078  CFF4 F036          	movff	prodh,___flmul@temp+1
   996   00107C  5035               	movf	___flmul@temp^0,w,c
   997   00107E  262B               	addwf	___flmul@grs^0,f,c
   998   001080  5036               	movf	(___flmul@temp+1)^0,w,c
   999   001082  222C               	addwfc	(___flmul@grs+1)^0,f,c
  1000   001084  0E00               	movlw	0
  1001   001086  222D               	addwfc	(___flmul@grs+2)^0,f,c
  1002   001088  0E00               	movlw	0
  1003   00108A  222E               	addwfc	(___flmul@grs+3)^0,f,c
  1004   00108C  5023               	movf	(___flmul@a+1)^0,w,c
  1005   00108E  021E               	mulwf	___flmul@b^0,c
  1006   001090  CFF3 F035          	movff	prodl,___flmul@temp
  1007   001094  CFF4 F036          	movff	prodh,___flmul@temp+1
  1008   001098  5035               	movf	___flmul@temp^0,w,c
  1009   00109A  262B               	addwf	___flmul@grs^0,f,c
  1010   00109C  5036               	movf	(___flmul@temp+1)^0,w,c
  1011   00109E  222C               	addwfc	(___flmul@grs+1)^0,f,c
  1012   0010A0  0E00               	movlw	0
  1013   0010A2  222D               	addwfc	(___flmul@grs+2)^0,f,c
  1014   0010A4  0E00               	movlw	0
  1015   0010A6  222E               	addwfc	(___flmul@grs+3)^0,f,c
  1016   0010A8  C02D  F02E         	movff	___flmul@grs+2,___flmul@grs+3
  1017   0010AC  C02C  F02D         	movff	___flmul@grs+1,___flmul@grs+2
  1018   0010B0  C02B  F02C         	movff	___flmul@grs,___flmul@grs+1
  1019   0010B4  6A2B               	clrf	___flmul@grs^0,c
  1020   0010B6  5022               	movf	___flmul@a^0,w,c
  1021   0010B8  021E               	mulwf	___flmul@b^0,c
  1022   0010BA  CFF3 F035          	movff	prodl,___flmul@temp
  1023   0010BE  CFF4 F036          	movff	prodh,___flmul@temp+1
  1024   0010C2  5035               	movf	___flmul@temp^0,w,c
  1025   0010C4  262B               	addwf	___flmul@grs^0,f,c
  1026   0010C6  5036               	movf	(___flmul@temp+1)^0,w,c
  1027   0010C8  222C               	addwfc	(___flmul@grs+1)^0,f,c
  1028   0010CA  0E00               	movlw	0
  1029   0010CC  222D               	addwfc	(___flmul@grs+2)^0,f,c
  1030   0010CE  0E00               	movlw	0
  1031   0010D0  222E               	addwfc	(___flmul@grs+3)^0,f,c
  1032   0010D2  5024               	movf	(___flmul@a+2)^0,w,c
  1033   0010D4  021F               	mulwf	(___flmul@b+1)^0,c
  1034   0010D6  CFF3 F035          	movff	prodl,___flmul@temp
  1035   0010DA  CFF4 F036          	movff	prodh,___flmul@temp+1
  1036   0010DE  5035               	movf	___flmul@temp^0,w,c
  1037   0010E0  2631               	addwf	___flmul@prod^0,f,c
  1038   0010E2  5036               	movf	(___flmul@temp+1)^0,w,c
  1039   0010E4  2232               	addwfc	(___flmul@prod+1)^0,f,c
  1040   0010E6  0E00               	movlw	0
  1041   0010E8  2233               	addwfc	(___flmul@prod+2)^0,f,c
  1042   0010EA  0E00               	movlw	0
  1043   0010EC  2234               	addwfc	(___flmul@prod+3)^0,f,c
  1044   0010EE  5023               	movf	(___flmul@a+1)^0,w,c
  1045   0010F0  0220               	mulwf	(___flmul@b+2)^0,c
  1046   0010F2  CFF3 F035          	movff	prodl,___flmul@temp
  1047   0010F6  CFF4 F036          	movff	prodh,___flmul@temp+1
  1048   0010FA  5035               	movf	___flmul@temp^0,w,c
  1049   0010FC  2631               	addwf	___flmul@prod^0,f,c
  1050   0010FE  5036               	movf	(___flmul@temp+1)^0,w,c
  1051   001100  2232               	addwfc	(___flmul@prod+1)^0,f,c
  1052   001102  0E00               	movlw	0
  1053   001104  2233               	addwfc	(___flmul@prod+2)^0,f,c
  1054   001106  0E00               	movlw	0
  1055   001108  2234               	addwfc	(___flmul@prod+3)^0,f,c
  1056   00110A  5024               	movf	(___flmul@a+2)^0,w,c
  1057   00110C  0220               	mulwf	(___flmul@b+2)^0,c
  1058   00110E  CFF3 F035          	movff	prodl,___flmul@temp
  1059   001112  CFF4 F036          	movff	prodh,___flmul@temp+1
  1060   001116  5035               	movf	___flmul@temp^0,w,c
  1061   001118  6E26               	movwf	??___flmul^0,c
  1062   00111A  5036               	movf	(___flmul@temp+1)^0,w,c
  1063   00111C  6E27               	movwf	(??___flmul+1)^0,c
  1064   00111E  6A28               	clrf	(??___flmul+2)^0,c
  1065   001120  6A29               	clrf	(??___flmul+3)^0,c
  1066   001122  C028  F029         	movff	??___flmul+2,??___flmul+3
  1067   001126  C027  F028         	movff	??___flmul+1,??___flmul+2
  1068   00112A  C026  F027         	movff	??___flmul,??___flmul+1
  1069   00112E  6A26               	clrf	??___flmul^0,c
  1070   001130  5026               	movf	??___flmul^0,w,c
  1071   001132  2631               	addwf	___flmul@prod^0,f,c
  1072   001134  5027               	movf	(??___flmul+1)^0,w,c
  1073   001136  2232               	addwfc	(___flmul@prod+1)^0,f,c
  1074   001138  5028               	movf	(??___flmul+2)^0,w,c
  1075   00113A  2233               	addwfc	(___flmul@prod+2)^0,f,c
  1076   00113C  5029               	movf	(??___flmul+3)^0,w,c
  1077   00113E  2234               	addwfc	(___flmul@prod+3)^0,f,c
  1078   001140  C02B  F026         	movff	___flmul@grs,??___flmul
  1079   001144  C02C  F027         	movff	___flmul@grs+1,??___flmul+1
  1080   001148  C02D  F028         	movff	___flmul@grs+2,??___flmul+2
  1081   00114C  C02E  F029         	movff	___flmul@grs+3,??___flmul+3
  1082   001150  0E19               	movlw	25
  1083   001152  EFB0  F008         	goto	u1050
  1084   001156                     u1055:
  1085   001156  90D8               	bcf	status,0,c
  1086   001158  3229               	rrcf	(??___flmul+3)^0,f,c
  1087   00115A  3228               	rrcf	(??___flmul+2)^0,f,c
  1088   00115C  3227               	rrcf	(??___flmul+1)^0,f,c
  1089   00115E  3226               	rrcf	??___flmul^0,f,c
  1090   001160                     u1050:
  1091   001160  2EE8               	decfsz	wreg,f,c
  1092   001162  EFAB  F008         	goto	u1055
  1093   001166  5026               	movf	??___flmul^0,w,c
  1094   001168  2631               	addwf	___flmul@prod^0,f,c
  1095   00116A  5027               	movf	(??___flmul+1)^0,w,c
  1096   00116C  2232               	addwfc	(___flmul@prod+1)^0,f,c
  1097   00116E  5028               	movf	(??___flmul+2)^0,w,c
  1098   001170  2233               	addwfc	(___flmul@prod+2)^0,f,c
  1099   001172  5029               	movf	(??___flmul+3)^0,w,c
  1100   001174  2234               	addwfc	(___flmul@prod+3)^0,f,c
  1101   001176  C02D  F02E         	movff	___flmul@grs+2,___flmul@grs+3
  1102   00117A  C02C  F02D         	movff	___flmul@grs+1,___flmul@grs+2
  1103   00117E  C02B  F02C         	movff	___flmul@grs,___flmul@grs+1
  1104   001182  6A2B               	clrf	___flmul@grs^0,c
  1105   001184  502F               	movf	___flmul@aexp^0,w,c
  1106   001186  C030  F026         	movff	___flmul@bexp,??___flmul
  1107   00118A  6A27               	clrf	(??___flmul+1)^0,c
  1108   00118C  2626               	addwf	??___flmul^0,f,c
  1109   00118E  0E00               	movlw	0
  1110   001190  2227               	addwfc	(??___flmul+1)^0,f,c
  1111   001192  0E82               	movlw	130
  1112   001194  2426               	addwf	??___flmul^0,w,c
  1113   001196  6E35               	movwf	___flmul@temp^0,c
  1114   001198  0EFF               	movlw	255
  1115   00119A  2027               	addwfc	(??___flmul+1)^0,w,c
  1116   00119C  6E36               	movwf	(___flmul@temp+1)^0,c
  1117   00119E  EFE6  F008         	goto	l1796
  1118   0011A2                     l1790:
  1119   0011A2  90D8               	bcf	status,0,c
  1120   0011A4  3631               	rlcf	___flmul@prod^0,f,c
  1121   0011A6  3632               	rlcf	(___flmul@prod+1)^0,f,c
  1122   0011A8  3633               	rlcf	(___flmul@prod+2)^0,f,c
  1123   0011AA  3634               	rlcf	(___flmul@prod+3)^0,f,c
  1124   0011AC  AE2E               	btfss	(___flmul@grs+3)^0,7,c
  1125   0011AE  EFDB  F008         	goto	u1061
  1126   0011B2  EFDD  F008         	goto	u1060
  1127   0011B6                     u1061:
  1128   0011B6  EFDE  F008         	goto	l922
  1129   0011BA                     u1060:
  1130   0011BA  8031               	bsf	___flmul@prod^0,0,c
  1131   0011BC                     l922:
  1132   0011BC  90D8               	bcf	status,0,c
  1133   0011BE  362B               	rlcf	___flmul@grs^0,f,c
  1134   0011C0  362C               	rlcf	(___flmul@grs+1)^0,f,c
  1135   0011C2  362D               	rlcf	(___flmul@grs+2)^0,f,c
  1136   0011C4  362E               	rlcf	(___flmul@grs+3)^0,f,c
  1137   0011C6  0635               	decf	___flmul@temp^0,f,c
  1138   0011C8  A0D8               	btfss	status,0,c
  1139   0011CA  0636               	decf	(___flmul@temp+1)^0,f,c
  1140   0011CC                     l1796:
  1141   0011CC  AE33               	btfss	(___flmul@prod+2)^0,7,c
  1142   0011CE  EFEB  F008         	goto	u1071
  1143   0011D2  EFED  F008         	goto	u1070
  1144   0011D6                     u1071:
  1145   0011D6  EFD1  F008         	goto	l1790
  1146   0011DA                     u1070:
  1147   0011DA  0E00               	movlw	0
  1148   0011DC  6E2F               	movwf	___flmul@aexp^0,c
  1149   0011DE  AE2E               	btfss	(___flmul@grs+3)^0,7,c
  1150   0011E0  EFF4  F008         	goto	u1081
  1151   0011E4  EFF6  F008         	goto	u1080
  1152   0011E8                     u1081:
  1153   0011E8  EF1A  F009         	goto	l924
  1154   0011EC                     u1080:
  1155   0011EC  0EFF               	movlw	255
  1156   0011EE  142B               	andwf	___flmul@grs^0,w,c
  1157   0011F0  6E26               	movwf	??___flmul^0,c
  1158   0011F2  0EFF               	movlw	255
  1159   0011F4  142C               	andwf	(___flmul@grs+1)^0,w,c
  1160   0011F6  6E27               	movwf	(??___flmul+1)^0,c
  1161   0011F8  0EFF               	movlw	255
  1162   0011FA  142D               	andwf	(___flmul@grs+2)^0,w,c
  1163   0011FC  6E28               	movwf	(??___flmul+2)^0,c
  1164   0011FE  0E7F               	movlw	127
  1165   001200  142E               	andwf	(___flmul@grs+3)^0,w,c
  1166   001202  6E29               	movwf	(??___flmul+3)^0,c
  1167   001204  5026               	movf	??___flmul^0,w,c
  1168   001206  1027               	iorwf	(??___flmul+1)^0,w,c
  1169   001208  1028               	iorwf	(??___flmul+2)^0,w,c
  1170   00120A  1029               	iorwf	(??___flmul+3)^0,w,c
  1171   00120C  B4D8               	btfsc	status,2,c
  1172   00120E  EF0B  F009         	goto	u1091
  1173   001212  EF0D  F009         	goto	u1090
  1174   001216                     u1091:
  1175   001216  EF11  F009         	goto	l925
  1176   00121A                     u1090:
  1177   00121A                     l1804:
  1178   00121A  0E01               	movlw	1
  1179   00121C  6E2F               	movwf	___flmul@aexp^0,c
  1180   00121E  EF1A  F009         	goto	l924
  1181   001222                     l925:
  1182   001222  A031               	btfss	___flmul@prod^0,0,c
  1183   001224  EF16  F009         	goto	u1101
  1184   001228  EF18  F009         	goto	u1100
  1185   00122C                     u1101:
  1186   00122C  EF1A  F009         	goto	l924
  1187   001230                     u1100:
  1188   001230  EF0D  F009         	goto	l1804
  1189   001234                     l924:
  1190   001234  502F               	movf	___flmul@aexp^0,w,c
  1191   001236  B4D8               	btfsc	status,2,c
  1192   001238  EF20  F009         	goto	u1111
  1193   00123C  EF22  F009         	goto	u1110
  1194   001240                     u1111:
  1195   001240  EF46  F009         	goto	l1816
  1196   001244                     u1110:
  1197   001244  0E01               	movlw	1
  1198   001246  2631               	addwf	___flmul@prod^0,f,c
  1199   001248  0E00               	movlw	0
  1200   00124A  2232               	addwfc	(___flmul@prod+1)^0,f,c
  1201   00124C  2233               	addwfc	(___flmul@prod+2)^0,f,c
  1202   00124E  2234               	addwfc	(___flmul@prod+3)^0,f,c
  1203   001250  A034               	btfss	(___flmul@prod+3)^0,0,c
  1204   001252  EF2D  F009         	goto	u1121
  1205   001256  EF2F  F009         	goto	u1120
  1206   00125A                     u1121:
  1207   00125A  EF46  F009         	goto	l1816
  1208   00125E                     u1120:
  1209   00125E  C031  F026         	movff	___flmul@prod,??___flmul
  1210   001262  C032  F027         	movff	___flmul@prod+1,??___flmul+1
  1211   001266  C033  F028         	movff	___flmul@prod+2,??___flmul+2
  1212   00126A  C034  F029         	movff	___flmul@prod+3,??___flmul+3
  1213   00126E  3429               	rlcf	(??___flmul+3)^0,w,c
  1214   001270  3229               	rrcf	(??___flmul+3)^0,f,c
  1215   001272  3228               	rrcf	(??___flmul+2)^0,f,c
  1216   001274  3227               	rrcf	(??___flmul+1)^0,f,c
  1217   001276  3226               	rrcf	??___flmul^0,f,c
  1218   001278  C026  F031         	movff	??___flmul,___flmul@prod
  1219   00127C  C027  F032         	movff	??___flmul+1,___flmul@prod+1
  1220   001280  C028  F033         	movff	??___flmul+2,___flmul@prod+2
  1221   001284  C029  F034         	movff	??___flmul+3,___flmul@prod+3
  1222   001288  4A35               	infsnz	___flmul@temp^0,f,c
  1223   00128A  2A36               	incf	(___flmul@temp+1)^0,f,c
  1224   00128C                     l1816:
  1225   00128C  BE36               	btfsc	(___flmul@temp+1)^0,7,c
  1226   00128E  EF51  F009         	goto	u1131
  1227   001292  5036               	movf	(___flmul@temp+1)^0,w,c
  1228   001294  E108               	bnz	u1130
  1229   001296  2835               	incf	___flmul@temp^0,w,c
  1230   001298  A0D8               	btfss	status,0,c
  1231   00129A  EF51  F009         	goto	u1131
  1232   00129E  EF53  F009         	goto	u1130
  1233   0012A2                     u1131:
  1234   0012A2  EF5D  F009         	goto	l1820
  1235   0012A6                     u1130:
  1236   0012A6  0E00               	movlw	0
  1237   0012A8  6E31               	movwf	___flmul@prod^0,c
  1238   0012AA  0E00               	movlw	0
  1239   0012AC  6E32               	movwf	(___flmul@prod+1)^0,c
  1240   0012AE  0E80               	movlw	128
  1241   0012B0  6E33               	movwf	(___flmul@prod+2)^0,c
  1242   0012B2  0E7F               	movlw	127
  1243   0012B4  6E34               	movwf	(___flmul@prod+3)^0,c
  1244   0012B6  EF8B  F009         	goto	l1832
  1245   0012BA                     l1820:
  1246   0012BA  BE36               	btfsc	(___flmul@temp+1)^0,7,c
  1247   0012BC  EF6A  F009         	goto	u1140
  1248   0012C0  5036               	movf	(___flmul@temp+1)^0,w,c
  1249   0012C2  E106               	bnz	u1141
  1250   0012C4  0435               	decf	___flmul@temp^0,w,c
  1251   0012C6  B0D8               	btfsc	status,0,c
  1252   0012C8  EF68  F009         	goto	u1141
  1253   0012CC  EF6A  F009         	goto	u1140
  1254   0012D0                     u1141:
  1255   0012D0  EF76  F009         	goto	l932
  1256   0012D4                     u1140:
  1257   0012D4  0E00               	movlw	0
  1258   0012D6  6E31               	movwf	___flmul@prod^0,c
  1259   0012D8  0E00               	movlw	0
  1260   0012DA  6E32               	movwf	(___flmul@prod+1)^0,c
  1261   0012DC  0E00               	movlw	0
  1262   0012DE  6E33               	movwf	(___flmul@prod+2)^0,c
  1263   0012E0  0E00               	movlw	0
  1264   0012E2  6E34               	movwf	(___flmul@prod+3)^0,c
  1265   0012E4  0E00               	movlw	0
  1266   0012E6  6E2A               	movwf	___flmul@sign^0,c
  1267   0012E8  EF8B  F009         	goto	l1832
  1268   0012EC                     l932:
  1269   0012EC  C035  F030         	movff	___flmul@temp,___flmul@bexp
  1270   0012F0  0EFF               	movlw	255
  1271   0012F2  1631               	andwf	___flmul@prod^0,f,c
  1272   0012F4  0EFF               	movlw	255
  1273   0012F6  1632               	andwf	(___flmul@prod+1)^0,f,c
  1274   0012F8  0E7F               	movlw	127
  1275   0012FA  1633               	andwf	(___flmul@prod+2)^0,f,c
  1276   0012FC  0E00               	movlw	0
  1277   0012FE  1634               	andwf	(___flmul@prod+3)^0,f,c
  1278   001300  A030               	btfss	___flmul@bexp^0,0,c
  1279   001302  EF85  F009         	goto	u1151
  1280   001306  EF87  F009         	goto	u1150
  1281   00130A                     u1151:
  1282   00130A  EF88  F009         	goto	l1830
  1283   00130E                     u1150:
  1284   00130E  8E33               	bsf	(___flmul@prod+2)^0,7,c
  1285   001310                     l1830:
  1286   001310  90D8               	bcf	status,0,c
  1287   001312  3030               	rrcf	___flmul@bexp^0,w,c
  1288   001314  6E34               	movwf	(___flmul@prod+3)^0,c
  1289   001316                     l1832:
  1290   001316  502A               	movf	___flmul@sign^0,w,c
  1291   001318  1234               	iorwf	(___flmul@prod+3)^0,f,c
  1292   00131A  C031  F01E         	movff	___flmul@prod,?___flmul
  1293   00131E  C032  F01F         	movff	___flmul@prod+1,?___flmul+1
  1294   001322  C033  F020         	movff	___flmul@prod+2,?___flmul+2
  1295   001326  C034  F021         	movff	___flmul@prod+3,?___flmul+3
  1296   00132A                     l919:
  1297   00132A  0012               	return		;funcret
  1298   00132C                     __end_of___flmul:
  1299                           	callstack 0
  1300                           
  1301 ;; *************** function ___fldiv *****************
  1302 ;; Defined at:
  1303 ;;		line 11 in file "C:\Program Files\Microchip\xc8\v2.45\pic\sources\c99\common\sprcdiv.c"
  1304 ;; Parameters:    Size  Location     Type
  1305 ;;  b               4    4[COMRAM] unsigned char 
  1306 ;;  a               4    8[COMRAM] unsigned char 
  1307 ;; Auto vars:     Size  Location     Type
  1308 ;;  grs             4   23[COMRAM] unsigned long 
  1309 ;;  rem             4   16[COMRAM] unsigned long 
  1310 ;;  new_exp         2   21[COMRAM] short 
  1311 ;;  aexp            1   28[COMRAM] unsigned char 
  1312 ;;  bexp            1   27[COMRAM] unsigned char 
  1313 ;;  sign            1   20[COMRAM] unsigned char 
  1314 ;; Return value:  Size  Location     Type
  1315 ;;                  4    4[COMRAM] unsigned char 
  1316 ;; Registers used:
  1317 ;;		wreg, status,2, status,0
  1318 ;; Tracked objects:
  1319 ;;		On entry : 0/0
  1320 ;;		On exit  : 0/0
  1321 ;;		Unchanged: 0/0
  1322 ;; Data sizes:     COMRAM   BANK0   BANK1   BANK2   BANK3   BANK4   BANK5   BANK6   BANK7   BANK8   BANK9  BANK10  BANK1
      +1  BANK12  BANK13  BANK14
  1323 ;;      Params:         8       0       0       0       0       0       0       0       0       0       0       0       
      +0       0       0       0
  1324 ;;      Locals:        13       0       0       0       0       0       0       0       0       0       0       0       
      +0       0       0       0
  1325 ;;      Temps:          4       0       0       0       0       0       0       0       0       0       0       0       
      +0       0       0       0
  1326 ;;      Totals:        25       0       0       0       0       0       0       0       0       0       0       0       
      +0       0       0       0
  1327 ;;Total ram usage:       25 bytes
  1328 ;; Hardware stack levels used: 1
  1329 ;; Hardware stack levels required when called: 4
  1330 ;; This function calls:
  1331 ;;		Nothing
  1332 ;; This function is called by:
  1333 ;;		_trouver_CCPR
  1334 ;; This function uses a non-reentrant model
  1335 ;;
  1336                           
  1337                           	psect	text4
  1338   00132C                     __ptext4:
  1339                           	callstack 0
  1340   00132C                     ___fldiv:
  1341                           	callstack 25
  1342   00132C  5008               	movf	(___fldiv@b+3)^0,w,c
  1343   00132E  0B80               	andlw	128
  1344   001330  6E15               	movwf	___fldiv@sign^0,c
  1345   001332  5008               	movf	(___fldiv@b+3)^0,w,c
  1346   001334  2408               	addwf	(___fldiv@b+3)^0,w,c
  1347   001336  6E1C               	movwf	___fldiv@bexp^0,c
  1348   001338  AE07               	btfss	(___fldiv@b+2)^0,7,c
  1349   00133A  EFA1  F009         	goto	u741
  1350   00133E  EFA3  F009         	goto	u740
  1351   001342                     u741:
  1352   001342  EFA4  F009         	goto	l1576
  1353   001346                     u740:
  1354   001346  801C               	bsf	___fldiv@bexp^0,0,c
  1355   001348                     l1576:
  1356   001348  501C               	movf	___fldiv@bexp^0,w,c
  1357   00134A  B4D8               	btfsc	status,2,c
  1358   00134C  EFAA  F009         	goto	u751
  1359   001350  EFAC  F009         	goto	u750
  1360   001354                     u751:
  1361   001354  EFC1  F009         	goto	l1586
  1362   001358                     u750:
  1363   001358  281C               	incf	___fldiv@bexp^0,w,c
  1364   00135A  A4D8               	btfss	status,2,c
  1365   00135C  EFB2  F009         	goto	u761
  1366   001360  EFB4  F009         	goto	u760
  1367   001364                     u761:
  1368   001364  EFBC  F009         	goto	l1582
  1369   001368                     u760:
  1370   001368  0E00               	movlw	0
  1371   00136A  6E05               	movwf	___fldiv@b^0,c
  1372   00136C  0E00               	movlw	0
  1373   00136E  6E06               	movwf	(___fldiv@b+1)^0,c
  1374   001370  0E00               	movlw	0
  1375   001372  6E07               	movwf	(___fldiv@b+2)^0,c
  1376   001374  0E00               	movlw	0
  1377   001376  6E08               	movwf	(___fldiv@b+3)^0,c
  1378   001378                     l1582:
  1379   001378  8E07               	bsf	(___fldiv@b+2)^0,7,c
  1380   00137A  0E00               	movlw	0
  1381   00137C  6E08               	movwf	(___fldiv@b+3)^0,c
  1382   00137E  EFC9  F009         	goto	l1588
  1383   001382                     l1586:
  1384   001382  0E00               	movlw	0
  1385   001384  6E05               	movwf	___fldiv@b^0,c
  1386   001386  0E00               	movlw	0
  1387   001388  6E06               	movwf	(___fldiv@b+1)^0,c
  1388   00138A  0E00               	movlw	0
  1389   00138C  6E07               	movwf	(___fldiv@b+2)^0,c
  1390   00138E  0E00               	movlw	0
  1391   001390  6E08               	movwf	(___fldiv@b+3)^0,c
  1392   001392                     l1588:
  1393   001392  500C               	movf	(___fldiv@a+3)^0,w,c
  1394   001394  0B80               	andlw	128
  1395   001396  1A15               	xorwf	___fldiv@sign^0,f,c
  1396   001398  500C               	movf	(___fldiv@a+3)^0,w,c
  1397   00139A  240C               	addwf	(___fldiv@a+3)^0,w,c
  1398   00139C  6E1D               	movwf	___fldiv@aexp^0,c
  1399   00139E  AE0B               	btfss	(___fldiv@a+2)^0,7,c
  1400   0013A0  EFD4  F009         	goto	u771
  1401   0013A4  EFD6  F009         	goto	u770
  1402   0013A8                     u771:
  1403   0013A8  EFD7  F009         	goto	l1596
  1404   0013AC                     u770:
  1405   0013AC  801D               	bsf	___fldiv@aexp^0,0,c
  1406   0013AE                     l1596:
  1407   0013AE  501D               	movf	___fldiv@aexp^0,w,c
  1408   0013B0  B4D8               	btfsc	status,2,c
  1409   0013B2  EFDD  F009         	goto	u781
  1410   0013B6  EFDF  F009         	goto	u780
  1411   0013BA                     u781:
  1412   0013BA  EFF4  F009         	goto	l1606
  1413   0013BE                     u780:
  1414   0013BE  281D               	incf	___fldiv@aexp^0,w,c
  1415   0013C0  A4D8               	btfss	status,2,c
  1416   0013C2  EFE5  F009         	goto	u791
  1417   0013C6  EFE7  F009         	goto	u790
  1418   0013CA                     u791:
  1419   0013CA  EFEF  F009         	goto	l1602
  1420   0013CE                     u790:
  1421   0013CE  0E00               	movlw	0
  1422   0013D0  6E09               	movwf	___fldiv@a^0,c
  1423   0013D2  0E00               	movlw	0
  1424   0013D4  6E0A               	movwf	(___fldiv@a+1)^0,c
  1425   0013D6  0E00               	movlw	0
  1426   0013D8  6E0B               	movwf	(___fldiv@a+2)^0,c
  1427   0013DA  0E00               	movlw	0
  1428   0013DC  6E0C               	movwf	(___fldiv@a+3)^0,c
  1429   0013DE                     l1602:
  1430   0013DE  8E0B               	bsf	(___fldiv@a+2)^0,7,c
  1431   0013E0  0E00               	movlw	0
  1432   0013E2  6E0C               	movwf	(___fldiv@a+3)^0,c
  1433   0013E4  EFFC  F009         	goto	l1608
  1434   0013E8                     l1606:
  1435   0013E8  0E00               	movlw	0
  1436   0013EA  6E09               	movwf	___fldiv@a^0,c
  1437   0013EC  0E00               	movlw	0
  1438   0013EE  6E0A               	movwf	(___fldiv@a+1)^0,c
  1439   0013F0  0E00               	movlw	0
  1440   0013F2  6E0B               	movwf	(___fldiv@a+2)^0,c
  1441   0013F4  0E00               	movlw	0
  1442   0013F6  6E0C               	movwf	(___fldiv@a+3)^0,c
  1443   0013F8                     l1608:
  1444   0013F8  5009               	movf	___fldiv@a^0,w,c
  1445   0013FA  100A               	iorwf	(___fldiv@a+1)^0,w,c
  1446   0013FC  100B               	iorwf	(___fldiv@a+2)^0,w,c
  1447   0013FE  100C               	iorwf	(___fldiv@a+3)^0,w,c
  1448   001400  A4D8               	btfss	status,2,c
  1449   001402  EF05  F00A         	goto	u801
  1450   001406  EF07  F00A         	goto	u800
  1451   00140A                     u801:
  1452   00140A  EF1F  F00A         	goto	l1620
  1453   00140E                     u800:
  1454   00140E  0E00               	movlw	0
  1455   001410  6E05               	movwf	___fldiv@b^0,c
  1456   001412  0E00               	movlw	0
  1457   001414  6E06               	movwf	(___fldiv@b+1)^0,c
  1458   001416  0E00               	movlw	0
  1459   001418  6E07               	movwf	(___fldiv@b+2)^0,c
  1460   00141A  0E00               	movlw	0
  1461   00141C  6E08               	movwf	(___fldiv@b+3)^0,c
  1462   00141E  0E80               	movlw	128
  1463   001420  1207               	iorwf	(___fldiv@b+2)^0,f,c
  1464   001422  0E7F               	movlw	127
  1465   001424  1208               	iorwf	(___fldiv@b+3)^0,f,c
  1466   001426                     l1614:
  1467   001426  5015               	movf	___fldiv@sign^0,w,c
  1468   001428  1208               	iorwf	(___fldiv@b+3)^0,f,c
  1469   00142A  C005  F005         	movff	___fldiv@b,?___fldiv
  1470   00142E  C006  F006         	movff	___fldiv@b+1,?___fldiv+1
  1471   001432  C007  F007         	movff	___fldiv@b+2,?___fldiv+2
  1472   001436  C008  F008         	movff	___fldiv@b+3,?___fldiv+3
  1473   00143A  EF62  F00B         	goto	l883
  1474   00143E                     l1620:
  1475   00143E  501C               	movf	___fldiv@bexp^0,w,c
  1476   001440  A4D8               	btfss	status,2,c
  1477   001442  EF25  F00A         	goto	u811
  1478   001446  EF27  F00A         	goto	u810
  1479   00144A                     u811:
  1480   00144A  EF31  F00A         	goto	l1628
  1481   00144E                     u810:
  1482   00144E  0E00               	movlw	0
  1483   001450  6E05               	movwf	?___fldiv^0,c
  1484   001452  0E00               	movlw	0
  1485   001454  6E06               	movwf	(?___fldiv+1)^0,c
  1486   001456  0E00               	movlw	0
  1487   001458  6E07               	movwf	(?___fldiv+2)^0,c
  1488   00145A  0E00               	movlw	0
  1489   00145C  6E08               	movwf	(?___fldiv+3)^0,c
  1490   00145E  EF62  F00B         	goto	l883
  1491   001462                     l1628:
  1492   001462  501D               	movf	___fldiv@aexp^0,w,c
  1493   001464  C01C  F00D         	movff	___fldiv@bexp,??___fldiv
  1494   001468  6A0E               	clrf	(??___fldiv+1)^0,c
  1495   00146A  5E0D               	subwf	??___fldiv^0,f,c
  1496   00146C  0E00               	movlw	0
  1497   00146E  5A0E               	subwfb	(??___fldiv+1)^0,f,c
  1498   001470  0E7F               	movlw	127
  1499   001472  240D               	addwf	??___fldiv^0,w,c
  1500   001474  6E16               	movwf	___fldiv@new_exp^0,c
  1501   001476  0E00               	movlw	0
  1502   001478  200E               	addwfc	(??___fldiv+1)^0,w,c
  1503   00147A  6E17               	movwf	(___fldiv@new_exp+1)^0,c
  1504   00147C  C005  F011         	movff	___fldiv@b,___fldiv@rem
  1505   001480  C006  F012         	movff	___fldiv@b+1,___fldiv@rem+1
  1506   001484  C007  F013         	movff	___fldiv@b+2,___fldiv@rem+2
  1507   001488  C008  F014         	movff	___fldiv@b+3,___fldiv@rem+3
  1508   00148C  0E00               	movlw	0
  1509   00148E  6E05               	movwf	___fldiv@b^0,c
  1510   001490  0E00               	movlw	0
  1511   001492  6E06               	movwf	(___fldiv@b+1)^0,c
  1512   001494  0E00               	movlw	0
  1513   001496  6E07               	movwf	(___fldiv@b+2)^0,c
  1514   001498  0E00               	movlw	0
  1515   00149A  6E08               	movwf	(___fldiv@b+3)^0,c
  1516   00149C  0E00               	movlw	0
  1517   00149E  6E18               	movwf	___fldiv@grs^0,c
  1518   0014A0  0E00               	movlw	0
  1519   0014A2  6E19               	movwf	(___fldiv@grs+1)^0,c
  1520   0014A4  0E00               	movlw	0
  1521   0014A6  6E1A               	movwf	(___fldiv@grs+2)^0,c
  1522   0014A8  0E00               	movlw	0
  1523   0014AA  6E1B               	movwf	(___fldiv@grs+3)^0,c
  1524   0014AC  0E00               	movlw	0
  1525   0014AE  6E1D               	movwf	___fldiv@aexp^0,c
  1526   0014B0  EF92  F00A         	goto	l885
  1527   0014B4                     l1638:
  1528   0014B4  501D               	movf	___fldiv@aexp^0,w,c
  1529   0014B6  B4D8               	btfsc	status,2,c
  1530   0014B8  EF60  F00A         	goto	u821
  1531   0014BC  EF62  F00A         	goto	u820
  1532   0014C0                     u821:
  1533   0014C0  EF79  F00A         	goto	l1646
  1534   0014C4                     u820:
  1535   0014C4  90D8               	bcf	status,0,c
  1536   0014C6  3611               	rlcf	___fldiv@rem^0,f,c
  1537   0014C8  3612               	rlcf	(___fldiv@rem+1)^0,f,c
  1538   0014CA  3613               	rlcf	(___fldiv@rem+2)^0,f,c
  1539   0014CC  3614               	rlcf	(___fldiv@rem+3)^0,f,c
  1540   0014CE  90D8               	bcf	status,0,c
  1541   0014D0  3605               	rlcf	___fldiv@b^0,f,c
  1542   0014D2  3606               	rlcf	(___fldiv@b+1)^0,f,c
  1543   0014D4  3607               	rlcf	(___fldiv@b+2)^0,f,c
  1544   0014D6  3608               	rlcf	(___fldiv@b+3)^0,f,c
  1545   0014D8  AE1B               	btfss	(___fldiv@grs+3)^0,7,c
  1546   0014DA  EF71  F00A         	goto	u831
  1547   0014DE  EF73  F00A         	goto	u830
  1548   0014E2                     u831:
  1549   0014E2  EF74  F00A         	goto	l888
  1550   0014E6                     u830:
  1551   0014E6  8005               	bsf	___fldiv@b^0,0,c
  1552   0014E8                     l888:
  1553   0014E8  90D8               	bcf	status,0,c
  1554   0014EA  3618               	rlcf	___fldiv@grs^0,f,c
  1555   0014EC  3619               	rlcf	(___fldiv@grs+1)^0,f,c
  1556   0014EE  361A               	rlcf	(___fldiv@grs+2)^0,f,c
  1557   0014F0  361B               	rlcf	(___fldiv@grs+3)^0,f,c
  1558   0014F2                     l1646:
  1559   0014F2  5009               	movf	___fldiv@a^0,w,c
  1560   0014F4  5C11               	subwf	___fldiv@rem^0,w,c
  1561   0014F6  500A               	movf	(___fldiv@a+1)^0,w,c
  1562   0014F8  5812               	subwfb	(___fldiv@rem+1)^0,w,c
  1563   0014FA  500B               	movf	(___fldiv@a+2)^0,w,c
  1564   0014FC  5813               	subwfb	(___fldiv@rem+2)^0,w,c
  1565   0014FE  500C               	movf	(___fldiv@a+3)^0,w,c
  1566   001500  5814               	subwfb	(___fldiv@rem+3)^0,w,c
  1567   001502  A0D8               	btfss	status,0,c
  1568   001504  EF86  F00A         	goto	u841
  1569   001508  EF88  F00A         	goto	u840
  1570   00150C                     u841:
  1571   00150C  EF91  F00A         	goto	l1652
  1572   001510                     u840:
  1573   001510  8C1B               	bsf	(___fldiv@grs+3)^0,6,c
  1574   001512  5009               	movf	___fldiv@a^0,w,c
  1575   001514  5E11               	subwf	___fldiv@rem^0,f,c
  1576   001516  500A               	movf	(___fldiv@a+1)^0,w,c
  1577   001518  5A12               	subwfb	(___fldiv@rem+1)^0,f,c
  1578   00151A  500B               	movf	(___fldiv@a+2)^0,w,c
  1579   00151C  5A13               	subwfb	(___fldiv@rem+2)^0,f,c
  1580   00151E  500C               	movf	(___fldiv@a+3)^0,w,c
  1581   001520  5A14               	subwfb	(___fldiv@rem+3)^0,f,c
  1582   001522                     l1652:
  1583   001522  2A1D               	incf	___fldiv@aexp^0,f,c
  1584   001524                     l885:
  1585   001524  0E19               	movlw	25
  1586   001526  641D               	cpfsgt	___fldiv@aexp^0,c
  1587   001528  EF98  F00A         	goto	u851
  1588   00152C  EF9A  F00A         	goto	u850
  1589   001530                     u851:
  1590   001530  EF5A  F00A         	goto	l1638
  1591   001534                     u850:
  1592   001534  5011               	movf	___fldiv@rem^0,w,c
  1593   001536  1012               	iorwf	(___fldiv@rem+1)^0,w,c
  1594   001538  1013               	iorwf	(___fldiv@rem+2)^0,w,c
  1595   00153A  1014               	iorwf	(___fldiv@rem+3)^0,w,c
  1596   00153C  B4D8               	btfsc	status,2,c
  1597   00153E  EFA3  F00A         	goto	u861
  1598   001542  EFA5  F00A         	goto	u860
  1599   001546                     u861:
  1600   001546  EFBD  F00A         	goto	l1664
  1601   00154A                     u860:
  1602   00154A  8018               	bsf	___fldiv@grs^0,0,c
  1603   00154C  EFBD  F00A         	goto	l1664
  1604   001550                     l1658:
  1605   001550  90D8               	bcf	status,0,c
  1606   001552  3605               	rlcf	___fldiv@b^0,f,c
  1607   001554  3606               	rlcf	(___fldiv@b+1)^0,f,c
  1608   001556  3607               	rlcf	(___fldiv@b+2)^0,f,c
  1609   001558  3608               	rlcf	(___fldiv@b+3)^0,f,c
  1610   00155A  AE1B               	btfss	(___fldiv@grs+3)^0,7,c
  1611   00155C  EFB2  F00A         	goto	u871
  1612   001560  EFB4  F00A         	goto	u870
  1613   001564                     u871:
  1614   001564  EFB5  F00A         	goto	l894
  1615   001568                     u870:
  1616   001568  8005               	bsf	___fldiv@b^0,0,c
  1617   00156A                     l894:
  1618   00156A  90D8               	bcf	status,0,c
  1619   00156C  3618               	rlcf	___fldiv@grs^0,f,c
  1620   00156E  3619               	rlcf	(___fldiv@grs+1)^0,f,c
  1621   001570  361A               	rlcf	(___fldiv@grs+2)^0,f,c
  1622   001572  361B               	rlcf	(___fldiv@grs+3)^0,f,c
  1623   001574  0616               	decf	___fldiv@new_exp^0,f,c
  1624   001576  A0D8               	btfss	status,0,c
  1625   001578  0617               	decf	(___fldiv@new_exp+1)^0,f,c
  1626   00157A                     l1664:
  1627   00157A  AE07               	btfss	(___fldiv@b+2)^0,7,c
  1628   00157C  EFC2  F00A         	goto	u881
  1629   001580  EFC4  F00A         	goto	u880
  1630   001584                     u881:
  1631   001584  EFA8  F00A         	goto	l1658
  1632   001588                     u880:
  1633   001588  0E00               	movlw	0
  1634   00158A  6E1D               	movwf	___fldiv@aexp^0,c
  1635   00158C  AE1B               	btfss	(___fldiv@grs+3)^0,7,c
  1636   00158E  EFCB  F00A         	goto	u891
  1637   001592  EFCD  F00A         	goto	u890
  1638   001596                     u891:
  1639   001596  EFF1  F00A         	goto	l896
  1640   00159A                     u890:
  1641   00159A  0EFF               	movlw	255
  1642   00159C  1418               	andwf	___fldiv@grs^0,w,c
  1643   00159E  6E0D               	movwf	??___fldiv^0,c
  1644   0015A0  0EFF               	movlw	255
  1645   0015A2  1419               	andwf	(___fldiv@grs+1)^0,w,c
  1646   0015A4  6E0E               	movwf	(??___fldiv+1)^0,c
  1647   0015A6  0EFF               	movlw	255
  1648   0015A8  141A               	andwf	(___fldiv@grs+2)^0,w,c
  1649   0015AA  6E0F               	movwf	(??___fldiv+2)^0,c
  1650   0015AC  0E7F               	movlw	127
  1651   0015AE  141B               	andwf	(___fldiv@grs+3)^0,w,c
  1652   0015B0  6E10               	movwf	(??___fldiv+3)^0,c
  1653   0015B2  500D               	movf	??___fldiv^0,w,c
  1654   0015B4  100E               	iorwf	(??___fldiv+1)^0,w,c
  1655   0015B6  100F               	iorwf	(??___fldiv+2)^0,w,c
  1656   0015B8  1010               	iorwf	(??___fldiv+3)^0,w,c
  1657   0015BA  B4D8               	btfsc	status,2,c
  1658   0015BC  EFE2  F00A         	goto	u901
  1659   0015C0  EFE4  F00A         	goto	u900
  1660   0015C4                     u901:
  1661   0015C4  EFE8  F00A         	goto	l897
  1662   0015C8                     u900:
  1663   0015C8                     l1672:
  1664   0015C8  0E01               	movlw	1
  1665   0015CA  6E1D               	movwf	___fldiv@aexp^0,c
  1666   0015CC  EFF1  F00A         	goto	l896
  1667   0015D0                     l897:
  1668   0015D0  A005               	btfss	___fldiv@b^0,0,c
  1669   0015D2  EFED  F00A         	goto	u911
  1670   0015D6  EFEF  F00A         	goto	u910
  1671   0015DA                     u911:
  1672   0015DA  EFF1  F00A         	goto	l896
  1673   0015DE                     u910:
  1674   0015DE  EFE4  F00A         	goto	l1672
  1675   0015E2                     l896:
  1676   0015E2  501D               	movf	___fldiv@aexp^0,w,c
  1677   0015E4  B4D8               	btfsc	status,2,c
  1678   0015E6  EFF7  F00A         	goto	u921
  1679   0015EA  EFF9  F00A         	goto	u920
  1680   0015EE                     u921:
  1681   0015EE  EF1D  F00B         	goto	l1684
  1682   0015F2                     u920:
  1683   0015F2  0E01               	movlw	1
  1684   0015F4  2605               	addwf	___fldiv@b^0,f,c
  1685   0015F6  0E00               	movlw	0
  1686   0015F8  2206               	addwfc	(___fldiv@b+1)^0,f,c
  1687   0015FA  2207               	addwfc	(___fldiv@b+2)^0,f,c
  1688   0015FC  2208               	addwfc	(___fldiv@b+3)^0,f,c
  1689   0015FE  A008               	btfss	(___fldiv@b+3)^0,0,c
  1690   001600  EF04  F00B         	goto	u931
  1691   001604  EF06  F00B         	goto	u930
  1692   001608                     u931:
  1693   001608  EF1D  F00B         	goto	l1684
  1694   00160C                     u930:
  1695   00160C  C005  F00D         	movff	___fldiv@b,??___fldiv
  1696   001610  C006  F00E         	movff	___fldiv@b+1,??___fldiv+1
  1697   001614  C007  F00F         	movff	___fldiv@b+2,??___fldiv+2
  1698   001618  C008  F010         	movff	___fldiv@b+3,??___fldiv+3
  1699   00161C  3410               	rlcf	(??___fldiv+3)^0,w,c
  1700   00161E  3210               	rrcf	(??___fldiv+3)^0,f,c
  1701   001620  320F               	rrcf	(??___fldiv+2)^0,f,c
  1702   001622  320E               	rrcf	(??___fldiv+1)^0,f,c
  1703   001624  320D               	rrcf	??___fldiv^0,f,c
  1704   001626  C00D  F005         	movff	??___fldiv,___fldiv@b
  1705   00162A  C00E  F006         	movff	??___fldiv+1,___fldiv@b+1
  1706   00162E  C00F  F007         	movff	??___fldiv+2,___fldiv@b+2
  1707   001632  C010  F008         	movff	??___fldiv+3,___fldiv@b+3
  1708   001636  4A16               	infsnz	___fldiv@new_exp^0,f,c
  1709   001638  2A17               	incf	(___fldiv@new_exp+1)^0,f,c
  1710   00163A                     l1684:
  1711   00163A  BE17               	btfsc	(___fldiv@new_exp+1)^0,7,c
  1712   00163C  EF28  F00B         	goto	u941
  1713   001640  5017               	movf	(___fldiv@new_exp+1)^0,w,c
  1714   001642  E108               	bnz	u940
  1715   001644  2816               	incf	___fldiv@new_exp^0,w,c
  1716   001646  A0D8               	btfss	status,0,c
  1717   001648  EF28  F00B         	goto	u941
  1718   00164C  EF2A  F00B         	goto	u940
  1719   001650                     u941:
  1720   001650  EF35  F00B         	goto	l1688
  1721   001654                     u940:
  1722   001654  0E00               	movlw	0
  1723   001656  6E17               	movwf	(___fldiv@new_exp+1)^0,c
  1724   001658  6816               	setf	___fldiv@new_exp^0,c
  1725   00165A  0E00               	movlw	0
  1726   00165C  6E05               	movwf	___fldiv@b^0,c
  1727   00165E  0E00               	movlw	0
  1728   001660  6E06               	movwf	(___fldiv@b+1)^0,c
  1729   001662  0E00               	movlw	0
  1730   001664  6E07               	movwf	(___fldiv@b+2)^0,c
  1731   001666  0E00               	movlw	0
  1732   001668  6E08               	movwf	(___fldiv@b+3)^0,c
  1733   00166A                     l1688:
  1734   00166A  BE17               	btfsc	(___fldiv@new_exp+1)^0,7,c
  1735   00166C  EF42  F00B         	goto	u950
  1736   001670  5017               	movf	(___fldiv@new_exp+1)^0,w,c
  1737   001672  E106               	bnz	u951
  1738   001674  0416               	decf	___fldiv@new_exp^0,w,c
  1739   001676  B0D8               	btfsc	status,0,c
  1740   001678  EF40  F00B         	goto	u951
  1741   00167C  EF42  F00B         	goto	u950
  1742   001680                     u951:
  1743   001680  EF50  F00B         	goto	l1692
  1744   001684                     u950:
  1745   001684  0E00               	movlw	0
  1746   001686  6E17               	movwf	(___fldiv@new_exp+1)^0,c
  1747   001688  0E00               	movlw	0
  1748   00168A  6E16               	movwf	___fldiv@new_exp^0,c
  1749   00168C  0E00               	movlw	0
  1750   00168E  6E05               	movwf	___fldiv@b^0,c
  1751   001690  0E00               	movlw	0
  1752   001692  6E06               	movwf	(___fldiv@b+1)^0,c
  1753   001694  0E00               	movlw	0
  1754   001696  6E07               	movwf	(___fldiv@b+2)^0,c
  1755   001698  0E00               	movlw	0
  1756   00169A  6E08               	movwf	(___fldiv@b+3)^0,c
  1757   00169C  0E00               	movlw	0
  1758   00169E  6E15               	movwf	___fldiv@sign^0,c
  1759   0016A0                     l1692:
  1760   0016A0  C016  F01C         	movff	___fldiv@new_exp,___fldiv@bexp
  1761   0016A4  A01C               	btfss	___fldiv@bexp^0,0,c
  1762   0016A6  EF57  F00B         	goto	u961
  1763   0016AA  EF59  F00B         	goto	u960
  1764   0016AE                     u961:
  1765   0016AE  EF5C  F00B         	goto	l1698
  1766   0016B2                     u960:
  1767   0016B2  8E07               	bsf	(___fldiv@b+2)^0,7,c
  1768   0016B4  EF5D  F00B         	goto	l1700
  1769   0016B8                     l1698:
  1770   0016B8  9E07               	bcf	(___fldiv@b+2)^0,7,c
  1771   0016BA                     l1700:
  1772   0016BA  90D8               	bcf	status,0,c
  1773   0016BC  301C               	rrcf	___fldiv@bexp^0,w,c
  1774   0016BE  6E08               	movwf	(___fldiv@b+3)^0,c
  1775   0016C0  EF13  F00A         	goto	l1614
  1776   0016C4                     l883:
  1777   0016C4  0012               	return		;funcret
  1778   0016C6                     __end_of___fldiv:
  1779                           	callstack 0
  1780                           
  1781 ;; *************** function _SYSTEM_Initialize *****************
  1782 ;; Defined at:
  1783 ;;		line 50 in file "mcc_generated_files/mcc.c"
  1784 ;; Parameters:    Size  Location     Type
  1785 ;;		None
  1786 ;; Auto vars:     Size  Location     Type
  1787 ;;		None
  1788 ;; Return value:  Size  Location     Type
  1789 ;;                  1    wreg      void 
  1790 ;; Registers used:
  1791 ;;		wreg, status,2, status,0, cstack
  1792 ;; Tracked objects:
  1793 ;;		On entry : 0/0
  1794 ;;		On exit  : 0/0
  1795 ;;		Unchanged: 0/0
  1796 ;; Data sizes:     COMRAM   BANK0   BANK1   BANK2   BANK3   BANK4   BANK5   BANK6   BANK7   BANK8   BANK9  BANK10  BANK1
      +1  BANK12  BANK13  BANK14
  1797 ;;      Params:         0       0       0       0       0       0       0       0       0       0       0       0       
      +0       0       0       0
  1798 ;;      Locals:         0       0       0       0       0       0       0       0       0       0       0       0       
      +0       0       0       0
  1799 ;;      Temps:          0       0       0       0       0       0       0       0       0       0       0       0       
      +0       0       0       0
  1800 ;;      Totals:         0       0       0       0       0       0       0       0       0       0       0       0       
      +0       0       0       0
  1801 ;;Total ram usage:        0 bytes
  1802 ;; Hardware stack levels used: 1
  1803 ;; Hardware stack levels required when called: 6
  1804 ;; This function calls:
  1805 ;;		_EUSART1_Initialize
  1806 ;;		_INTERRUPT_Initialize
  1807 ;;		_OSCILLATOR_Initialize
  1808 ;;		_PIN_MANAGER_Initialize
  1809 ;;		_PWM2_Initialize
  1810 ;;		_TMR2_Initialize
  1811 ;; This function is called by:
  1812 ;;		_main
  1813 ;; This function uses a non-reentrant model
  1814 ;;
  1815                           
  1816                           	psect	text5
  1817   001B84                     __ptext5:
  1818                           	callstack 0
  1819   001B84                     _SYSTEM_Initialize:
  1820                           	callstack 24
  1821   001B84                     
  1822                           ;mcc_generated_files/mcc.c: 53:     INTERRUPT_Initialize();
  1823   001B84  EC08  F00E         	call	_INTERRUPT_Initialize	;wreg free
  1824   001B88                     
  1825                           ;mcc_generated_files/mcc.c: 54:     PIN_MANAGER_Initialize();
  1826   001B88  EC88  F00D         	call	_PIN_MANAGER_Initialize	;wreg free
  1827   001B8C                     
  1828                           ;mcc_generated_files/mcc.c: 55:     OSCILLATOR_Initialize();
  1829   001B8C  ECD8  F00D         	call	_OSCILLATOR_Initialize	;wreg free
  1830   001B90                     
  1831                           ;mcc_generated_files/mcc.c: 56:     PWM2_Initialize();
  1832   001B90  ECCF  F00D         	call	_PWM2_Initialize	;wreg free
  1833   001B94                     
  1834                           ;mcc_generated_files/mcc.c: 57:     TMR2_Initialize();
  1835   001B94  ECE1  F00D         	call	_TMR2_Initialize	;wreg free
  1836   001B98                     
  1837                           ;mcc_generated_files/mcc.c: 58:     EUSART1_Initialize();
  1838   001B98  ECEE  F00C         	call	_EUSART1_Initialize	;wreg free
  1839   001B9C  0012               	return		;funcret
  1840   001B9E                     __end_of_SYSTEM_Initialize:
  1841                           	callstack 0
  1842                           
  1843 ;; *************** function _TMR2_Initialize *****************
  1844 ;; Defined at:
  1845 ;;		line 62 in file "mcc_generated_files/tmr2.c"
  1846 ;; Parameters:    Size  Location     Type
  1847 ;;		None
  1848 ;; Auto vars:     Size  Location     Type
  1849 ;;		None
  1850 ;; Return value:  Size  Location     Type
  1851 ;;                  1    wreg      void 
  1852 ;; Registers used:
  1853 ;;		wreg, status,2
  1854 ;; Tracked objects:
  1855 ;;		On entry : 0/0
  1856 ;;		On exit  : 0/0
  1857 ;;		Unchanged: 0/0
  1858 ;; Data sizes:     COMRAM   BANK0   BANK1   BANK2   BANK3   BANK4   BANK5   BANK6   BANK7   BANK8   BANK9  BANK10  BANK1
      +1  BANK12  BANK13  BANK14
  1859 ;;      Params:         0       0       0       0       0       0       0       0       0       0       0       0       
      +0       0       0       0
  1860 ;;      Locals:         0       0       0       0       0       0       0       0       0       0       0       0       
      +0       0       0       0
  1861 ;;      Temps:          0       0       0       0       0       0       0       0       0       0       0       0       
      +0       0       0       0
  1862 ;;      Totals:         0       0       0       0       0       0       0       0       0       0       0       0       
      +0       0       0       0
  1863 ;;Total ram usage:        0 bytes
  1864 ;; Hardware stack levels used: 1
  1865 ;; Hardware stack levels required when called: 4
  1866 ;; This function calls:
  1867 ;;		Nothing
  1868 ;; This function is called by:
  1869 ;;		_SYSTEM_Initialize
  1870 ;; This function uses a non-reentrant model
  1871 ;;
  1872                           
  1873                           	psect	text6
  1874   001BC2                     __ptext6:
  1875                           	callstack 0
  1876   001BC2                     _TMR2_Initialize:
  1877                           	callstack 25
  1878   001BC2                     
  1879                           ;mcc_generated_files/tmr2.c: 67:     PR2 = 0x9B;
  1880   001BC2  0E9B               	movlw	155
  1881   001BC4  6ECB               	movwf	203,c	;volatile
  1882                           
  1883                           ;mcc_generated_files/tmr2.c: 70:     TMR2 = 0x00;
  1884   001BC6  0E00               	movlw	0
  1885   001BC8  6ECC               	movwf	204,c	;volatile
  1886   001BCA                     
  1887                           ;mcc_generated_files/tmr2.c: 73:     PIR1bits.TMR2IF = 0;
  1888   001BCA  929E               	bcf	158,1,c	;volatile
  1889                           
  1890                           ;mcc_generated_files/tmr2.c: 76:     T2CON = 0x06;
  1891   001BCC  0E06               	movlw	6
  1892   001BCE  6ECA               	movwf	202,c	;volatile
  1893   001BD0  0012               	return		;funcret
  1894   001BD2                     __end_of_TMR2_Initialize:
  1895                           	callstack 0
  1896                           
  1897 ;; *************** function _PWM2_Initialize *****************
  1898 ;; Defined at:
  1899 ;;		line 64 in file "mcc_generated_files/pwm2.c"
  1900 ;; Parameters:    Size  Location     Type
  1901 ;;		None
  1902 ;; Auto vars:     Size  Location     Type
  1903 ;;		None
  1904 ;; Return value:  Size  Location     Type
  1905 ;;                  1    wreg      void 
  1906 ;; Registers used:
  1907 ;;		wreg, status,2
  1908 ;; Tracked objects:
  1909 ;;		On entry : 0/0
  1910 ;;		On exit  : 0/0
  1911 ;;		Unchanged: 0/0
  1912 ;; Data sizes:     COMRAM   BANK0   BANK1   BANK2   BANK3   BANK4   BANK5   BANK6   BANK7   BANK8   BANK9  BANK10  BANK1
      +1  BANK12  BANK13  BANK14
  1913 ;;      Params:         0       0       0       0       0       0       0       0       0       0       0       0       
      +0       0       0       0
  1914 ;;      Locals:         0       0       0       0       0       0       0       0       0       0       0       0       
      +0       0       0       0
  1915 ;;      Temps:          0       0       0       0       0       0       0       0       0       0       0       0       
      +0       0       0       0
  1916 ;;      Totals:         0       0       0       0       0       0       0       0       0       0       0       0       
      +0       0       0       0
  1917 ;;Total ram usage:        0 bytes
  1918 ;; Hardware stack levels used: 1
  1919 ;; Hardware stack levels required when called: 4
  1920 ;; This function calls:
  1921 ;;		Nothing
  1922 ;; This function is called by:
  1923 ;;		_SYSTEM_Initialize
  1924 ;; This function uses a non-reentrant model
  1925 ;;
  1926                           
  1927                           	psect	text7
  1928   001B9E                     __ptext7:
  1929                           	callstack 0
  1930   001B9E                     _PWM2_Initialize:
  1931                           	callstack 25
  1932   001B9E                     
  1933                           ;mcc_generated_files/pwm2.c: 69:  CCP2CON = 0x0C;
  1934   001B9E  0E0C               	movlw	12
  1935   001BA0  010F               	movlb	15	; () banked
  1936   001BA2  6F50               	movwf	80,b	;volatile
  1937                           
  1938                           ;mcc_generated_files/pwm2.c: 72:  CCPR2L = 0x00;
  1939   001BA4  0E00               	movlw	0
  1940   001BA6  6F51               	movwf	81,b	;volatile
  1941                           
  1942                           ;mcc_generated_files/pwm2.c: 75:  CCPR2H = 0x00;
  1943   001BA8  0E00               	movlw	0
  1944   001BAA  6F52               	movwf	82,b	;volatile
  1945   001BAC                     
  1946                           ; BSR set to: 15
  1947                           ;mcc_generated_files/pwm2.c: 78:  CCPTMRSbits.C2TSEL = 0x0;
  1948   001BAC  9299               	bcf	153,1,c	;volatile
  1949   001BAE                     
  1950                           ; BSR set to: 15
  1951   001BAE  0012               	return		;funcret
  1952   001BB0                     __end_of_PWM2_Initialize:
  1953                           	callstack 0
  1954                           
  1955 ;; *************** function _PIN_MANAGER_Initialize *****************
  1956 ;; Defined at:
  1957 ;;		line 55 in file "mcc_generated_files/pin_manager.c"
  1958 ;; Parameters:    Size  Location     Type
  1959 ;;		None
  1960 ;; Auto vars:     Size  Location     Type
  1961 ;;		None
  1962 ;; Return value:  Size  Location     Type
  1963 ;;                  1    wreg      void 
  1964 ;; Registers used:
  1965 ;;		wreg, status,2
  1966 ;; Tracked objects:
  1967 ;;		On entry : 0/0
  1968 ;;		On exit  : 0/0
  1969 ;;		Unchanged: 0/0
  1970 ;; Data sizes:     COMRAM   BANK0   BANK1   BANK2   BANK3   BANK4   BANK5   BANK6   BANK7   BANK8   BANK9  BANK10  BANK1
      +1  BANK12  BANK13  BANK14
  1971 ;;      Params:         0       0       0       0       0       0       0       0       0       0       0       0       
      +0       0       0       0
  1972 ;;      Locals:         0       0       0       0       0       0       0       0       0       0       0       0       
      +0       0       0       0
  1973 ;;      Temps:          0       0       0       0       0       0       0       0       0       0       0       0       
      +0       0       0       0
  1974 ;;      Totals:         0       0       0       0       0       0       0       0       0       0       0       0       
      +0       0       0       0
  1975 ;;Total ram usage:        0 bytes
  1976 ;; Hardware stack levels used: 1
  1977 ;; Hardware stack levels required when called: 4
  1978 ;; This function calls:
  1979 ;;		Nothing
  1980 ;; This function is called by:
  1981 ;;		_SYSTEM_Initialize
  1982 ;; This function uses a non-reentrant model
  1983 ;;
  1984                           
  1985                           	psect	text8
  1986   001B10                     __ptext8:
  1987                           	callstack 0
  1988   001B10                     _PIN_MANAGER_Initialize:
  1989                           	callstack 25
  1990   001B10                     
  1991                           ;mcc_generated_files/pin_manager.c: 60:     LATA = 0x00;
  1992   001B10  0E00               	movlw	0
  1993   001B12  6E89               	movwf	137,c	;volatile
  1994                           
  1995                           ;mcc_generated_files/pin_manager.c: 61:     LATB = 0x00;
  1996   001B14  0E00               	movlw	0
  1997   001B16  6E8A               	movwf	138,c	;volatile
  1998                           
  1999                           ;mcc_generated_files/pin_manager.c: 62:     LATC = 0x00;
  2000   001B18  0E00               	movlw	0
  2001   001B1A  6E8B               	movwf	139,c	;volatile
  2002                           
  2003                           ;mcc_generated_files/pin_manager.c: 67:     TRISA = 0xCF;
  2004   001B1C  0ECF               	movlw	207
  2005   001B1E  6E92               	movwf	146,c	;volatile
  2006   001B20                     
  2007                           ;mcc_generated_files/pin_manager.c: 68:     TRISB = 0xFF;
  2008   001B20  6893               	setf	147,c	;volatile
  2009                           
  2010                           ;mcc_generated_files/pin_manager.c: 69:     TRISC = 0xBB;
  2011   001B22  0EBB               	movlw	187
  2012   001B24  6E94               	movwf	148,c	;volatile
  2013                           
  2014                           ;mcc_generated_files/pin_manager.c: 74:     ANCON0 = 0x1F;
  2015   001B26  0E1F               	movlw	31
  2016   001B28  010F               	movlb	15	; () banked
  2017   001B2A  6F5D               	movwf	93,b	;volatile
  2018                           
  2019                           ;mcc_generated_files/pin_manager.c: 75:     ANCON1 = 0x03;
  2020   001B2C  0E03               	movlw	3
  2021   001B2E  6F5C               	movwf	92,b	;volatile
  2022                           
  2023                           ;mcc_generated_files/pin_manager.c: 80:     WPUB = 0x00;
  2024   001B30  0E00               	movlw	0
  2025   001B32  6F5B               	movwf	91,b	;volatile
  2026   001B34                     
  2027                           ; BSR set to: 15
  2028                           ;mcc_generated_files/pin_manager.c: 81:     INTCON2bits.nRBPU = 1;
  2029   001B34  8EF1               	bsf	241,7,c	;volatile
  2030   001B36                     
  2031                           ; BSR set to: 15
  2032   001B36  0012               	return		;funcret
  2033   001B38                     __end_of_PIN_MANAGER_Initialize:
  2034                           	callstack 0
  2035                           
  2036 ;; *************** function _OSCILLATOR_Initialize *****************
  2037 ;; Defined at:
  2038 ;;		line 61 in file "mcc_generated_files/mcc.c"
  2039 ;; Parameters:    Size  Location     Type
  2040 ;;		None
  2041 ;; Auto vars:     Size  Location     Type
  2042 ;;		None
  2043 ;; Return value:  Size  Location     Type
  2044 ;;                  1    wreg      void 
  2045 ;; Registers used:
  2046 ;;		wreg, status,2
  2047 ;; Tracked objects:
  2048 ;;		On entry : 0/0
  2049 ;;		On exit  : 0/0
  2050 ;;		Unchanged: 0/0
  2051 ;; Data sizes:     COMRAM   BANK0   BANK1   BANK2   BANK3   BANK4   BANK5   BANK6   BANK7   BANK8   BANK9  BANK10  BANK1
      +1  BANK12  BANK13  BANK14
  2052 ;;      Params:         0       0       0       0       0       0       0       0       0       0       0       0       
      +0       0       0       0
  2053 ;;      Locals:         0       0       0       0       0       0       0       0       0       0       0       0       
      +0       0       0       0
  2054 ;;      Temps:          0       0       0       0       0       0       0       0       0       0       0       0       
      +0       0       0       0
  2055 ;;      Totals:         0       0       0       0       0       0       0       0       0       0       0       0       
      +0       0       0       0
  2056 ;;Total ram usage:        0 bytes
  2057 ;; Hardware stack levels used: 1
  2058 ;; Hardware stack levels required when called: 4
  2059 ;; This function calls:
  2060 ;;		Nothing
  2061 ;; This function is called by:
  2062 ;;		_SYSTEM_Initialize
  2063 ;; This function uses a non-reentrant model
  2064 ;;
  2065                           
  2066                           	psect	text9
  2067   001BB0                     __ptext9:
  2068                           	callstack 0
  2069   001BB0                     _OSCILLATOR_Initialize:
  2070                           	callstack 25
  2071   001BB0                     
  2072                           ;mcc_generated_files/mcc.c: 64:     OSCCON = 0x20;
  2073   001BB0  0E20               	movlw	32
  2074   001BB2  6ED3               	movwf	211,c	;volatile
  2075                           
  2076                           ;mcc_generated_files/mcc.c: 66:     OSCCON2 = 0x00;
  2077   001BB4  0E00               	movlw	0
  2078   001BB6  6ED2               	movwf	210,c	;volatile
  2079                           
  2080                           ;mcc_generated_files/mcc.c: 68:     OSCTUNE = 0x00;
  2081   001BB8  0E00               	movlw	0
  2082   001BBA  6E9B               	movwf	155,c	;volatile
  2083                           
  2084                           ;mcc_generated_files/mcc.c: 70:     REFOCON = 0x00;
  2085   001BBC  0E00               	movlw	0
  2086   001BBE  6E9A               	movwf	154,c	;volatile
  2087   001BC0  0012               	return		;funcret
  2088   001BC2                     __end_of_OSCILLATOR_Initialize:
  2089                           	callstack 0
  2090                           
  2091 ;; *************** function _INTERRUPT_Initialize *****************
  2092 ;; Defined at:
  2093 ;;		line 52 in file "mcc_generated_files/interrupt_manager.c"
  2094 ;; Parameters:    Size  Location     Type
  2095 ;;		None
  2096 ;; Auto vars:     Size  Location     Type
  2097 ;;		None
  2098 ;; Return value:  Size  Location     Type
  2099 ;;                  1    wreg      void 
  2100 ;; Registers used:
  2101 ;;		None
  2102 ;; Tracked objects:
  2103 ;;		On entry : 0/0
  2104 ;;		On exit  : 0/0
  2105 ;;		Unchanged: 0/0
  2106 ;; Data sizes:     COMRAM   BANK0   BANK1   BANK2   BANK3   BANK4   BANK5   BANK6   BANK7   BANK8   BANK9  BANK10  BANK1
      +1  BANK12  BANK13  BANK14
  2107 ;;      Params:         0       0       0       0       0       0       0       0       0       0       0       0       
      +0       0       0       0
  2108 ;;      Locals:         0       0       0       0       0       0       0       0       0       0       0       0       
      +0       0       0       0
  2109 ;;      Temps:          0       0       0       0       0       0       0       0       0       0       0       0       
      +0       0       0       0
  2110 ;;      Totals:         0       0       0       0       0       0       0       0       0       0       0       0       
      +0       0       0       0
  2111 ;;Total ram usage:        0 bytes
  2112 ;; Hardware stack levels used: 1
  2113 ;; Hardware stack levels required when called: 4
  2114 ;; This function calls:
  2115 ;;		Nothing
  2116 ;; This function is called by:
  2117 ;;		_SYSTEM_Initialize
  2118 ;; This function uses a non-reentrant model
  2119 ;;
  2120                           
  2121                           	psect	text10
  2122   001C10                     __ptext10:
  2123                           	callstack 0
  2124   001C10                     _INTERRUPT_Initialize:
  2125                           	callstack 25
  2126   001C10                     
  2127                           ;mcc_generated_files/interrupt_manager.c: 55:     RCONbits.IPEN = 0;
  2128   001C10  9ED0               	bcf	208,7,c	;volatile
  2129   001C12  0012               	return		;funcret
  2130   001C14                     __end_of_INTERRUPT_Initialize:
  2131                           	callstack 0
  2132                           
  2133 ;; *************** function _EUSART1_Initialize *****************
  2134 ;; Defined at:
  2135 ;;		line 88 in file "mcc_generated_files/eusart1.c"
  2136 ;; Parameters:    Size  Location     Type
  2137 ;;		None
  2138 ;; Auto vars:     Size  Location     Type
  2139 ;;		None
  2140 ;; Return value:  Size  Location     Type
  2141 ;;                  1    wreg      void 
  2142 ;; Registers used:
  2143 ;;		wreg, status,2, status,0, cstack
  2144 ;; Tracked objects:
  2145 ;;		On entry : 0/0
  2146 ;;		On exit  : 0/0
  2147 ;;		Unchanged: 0/0
  2148 ;; Data sizes:     COMRAM   BANK0   BANK1   BANK2   BANK3   BANK4   BANK5   BANK6   BANK7   BANK8   BANK9  BANK10  BANK1
      +1  BANK12  BANK13  BANK14
  2149 ;;      Params:         0       0       0       0       0       0       0       0       0       0       0       0       
      +0       0       0       0
  2150 ;;      Locals:         0       0       0       0       0       0       0       0       0       0       0       0       
      +0       0       0       0
  2151 ;;      Temps:          0       0       0       0       0       0       0       0       0       0       0       0       
      +0       0       0       0
  2152 ;;      Totals:         0       0       0       0       0       0       0       0       0       0       0       0       
      +0       0       0       0
  2153 ;;Total ram usage:        0 bytes
  2154 ;; Hardware stack levels used: 1
  2155 ;; Hardware stack levels required when called: 5
  2156 ;; This function calls:
  2157 ;;		_EUSART1_SetErrorHandler
  2158 ;;		_EUSART1_SetFramingErrorHandler
  2159 ;;		_EUSART1_SetOverrunErrorHandler
  2160 ;;		_EUSART1_SetRxInterruptHandler
  2161 ;;		_EUSART1_SetTxInterruptHandler
  2162 ;; This function is called by:
  2163 ;;		_SYSTEM_Initialize
  2164 ;; This function uses a non-reentrant model
  2165 ;;
  2166                           
  2167                           	psect	text11
  2168   0019DC                     __ptext11:
  2169                           	callstack 0
  2170   0019DC                     _EUSART1_Initialize:
  2171                           	callstack 24
  2172   0019DC                     
  2173                           ;mcc_generated_files/eusart1.c: 91:     PIE1bits.RC1IE = 0;
  2174   0019DC  9A9D               	bcf	157,5,c	;volatile
  2175   0019DE                     
  2176                           ;mcc_generated_files/eusart1.c: 92:     EUSART1_SetRxInterruptHandler(EUSART1_Receive_IS
      +                          R);
  2177   0019DE  0E8A               	movlw	low _EUSART1_Receive_ISR
  2178   0019E0  6E05               	movwf	EUSART1_SetRxInterruptHandler@interruptHandler^0,c
  2179   0019E2  0E18               	movlw	high _EUSART1_Receive_ISR
  2180   0019E4  6E06               	movwf	(EUSART1_SetRxInterruptHandler@interruptHandler+1)^0,c
  2181   0019E6  ECEE  F00D         	call	_EUSART1_SetRxInterruptHandler	;wreg free
  2182   0019EA                     
  2183                           ;mcc_generated_files/eusart1.c: 93:     PIE1bits.TX1IE = 0;
  2184   0019EA  989D               	bcf	157,4,c	;volatile
  2185                           
  2186                           ;mcc_generated_files/eusart1.c: 94:     EUSART1_SetTxInterruptHandler(EUSART1_Transmit_I
      +                          SR);
  2187   0019EC  0ED4               	movlw	low _EUSART1_Transmit_ISR
  2188   0019EE  6E05               	movwf	EUSART1_SetTxInterruptHandler@interruptHandler^0,c
  2189   0019F0  0E1A               	movlw	high _EUSART1_Transmit_ISR
  2190   0019F2  6E06               	movwf	(EUSART1_SetTxInterruptHandler@interruptHandler+1)^0,c
  2191   0019F4  ECE9  F00D         	call	_EUSART1_SetTxInterruptHandler	;wreg free
  2192   0019F8                     
  2193                           ;mcc_generated_files/eusart1.c: 98:     BAUDCON1 = 0x08;
  2194   0019F8  0E08               	movlw	8
  2195   0019FA  6EA7               	movwf	167,c	;volatile
  2196   0019FC                     
  2197                           ;mcc_generated_files/eusart1.c: 101:     RCSTA1 = 0x90;
  2198   0019FC  0E90               	movlw	144
  2199   0019FE  6EAB               	movwf	171,c	;volatile
  2200   001A00                     
  2201                           ;mcc_generated_files/eusart1.c: 104:     TXSTA1 = 0x24;
  2202   001A00  0E24               	movlw	36
  2203   001A02  6EAC               	movwf	172,c	;volatile
  2204   001A04                     
  2205                           ;mcc_generated_files/eusart1.c: 107:     SPBRG1 = 0x0C;
  2206   001A04  0E0C               	movlw	12
  2207   001A06  6EAF               	movwf	175,c	;volatile
  2208   001A08                     
  2209                           ;mcc_generated_files/eusart1.c: 110:     SPBRGH1 = 0x00;
  2210   001A08  0E00               	movlw	0
  2211   001A0A  6E7D               	movwf	125,c	;volatile
  2212   001A0C                     
  2213                           ;mcc_generated_files/eusart1.c: 113:     EUSART1_SetFramingErrorHandler(EUSART1_DefaultF
      +                          ramingErrorHandler);
  2214   001A0C  0E14               	movlw	low _EUSART1_DefaultFramingErrorHandler
  2215   001A0E  6E05               	movwf	EUSART1_SetFramingErrorHandler@interruptHandler^0,c
  2216   001A10  0E1C               	movlw	high _EUSART1_DefaultFramingErrorHandler
  2217   001A12  6E06               	movwf	(EUSART1_SetFramingErrorHandler@interruptHandler+1)^0,c
  2218   001A14  ECF8  F00D         	call	_EUSART1_SetFramingErrorHandler	;wreg free
  2219   001A18                     
  2220                           ;mcc_generated_files/eusart1.c: 114:     EUSART1_SetOverrunErrorHandler(EUSART1_DefaultO
      +                          verrunErrorHandler);
  2221   001A18  0E04               	movlw	low _EUSART1_DefaultOverrunErrorHandler
  2222   001A1A  6E05               	movwf	EUSART1_SetOverrunErrorHandler@interruptHandler^0,c
  2223   001A1C  0E1C               	movlw	high _EUSART1_DefaultOverrunErrorHandler
  2224   001A1E  6E06               	movwf	(EUSART1_SetOverrunErrorHandler@interruptHandler+1)^0,c
  2225   001A20  ECF3  F00D         	call	_EUSART1_SetOverrunErrorHandler	;wreg free
  2226   001A24                     
  2227                           ;mcc_generated_files/eusart1.c: 115:     EUSART1_SetErrorHandler(EUSART1_DefaultErrorHan
      +                          dler);
  2228   001A24  0E0A               	movlw	low _EUSART1_DefaultErrorHandler
  2229   001A26  6E05               	movwf	EUSART1_SetErrorHandler@interruptHandler^0,c
  2230   001A28  0E1C               	movlw	high _EUSART1_DefaultErrorHandler
  2231   001A2A  6E06               	movwf	(EUSART1_SetErrorHandler@interruptHandler+1)^0,c
  2232   001A2C  ECFD  F00D         	call	_EUSART1_SetErrorHandler	;wreg free
  2233                           
  2234                           ;mcc_generated_files/eusart1.c: 117:     eusart1RxLastError.status = 0;
  2235   001A30  0E00               	movlw	0
  2236   001A32  6E53               	movwf	_eusart1RxLastError^0,c	;volatile
  2237                           
  2238                           ;mcc_generated_files/eusart1.c: 120:     eusart1TxHead = 0;
  2239   001A34  0E00               	movlw	0
  2240   001A36  6E59               	movwf	_eusart1TxHead^0,c	;volatile
  2241                           
  2242                           ;mcc_generated_files/eusart1.c: 121:     eusart1TxTail = 0;
  2243   001A38  0E00               	movlw	0
  2244   001A3A  6E58               	movwf	_eusart1TxTail^0,c	;volatile
  2245                           
  2246                           ;mcc_generated_files/eusart1.c: 122:     eusart1TxBufferRemaining = sizeof(eusart1TxBuff
      +                          er);
  2247   001A3C  0E08               	movlw	8
  2248   001A3E  6E57               	movwf	_eusart1TxBufferRemaining^0,c	;volatile
  2249                           
  2250                           ;mcc_generated_files/eusart1.c: 124:     eusart1RxHead = 0;
  2251   001A40  0E00               	movlw	0
  2252   001A42  6E56               	movwf	_eusart1RxHead^0,c	;volatile
  2253                           
  2254                           ;mcc_generated_files/eusart1.c: 125:     eusart1RxTail = 0;
  2255   001A44  0E00               	movlw	0
  2256   001A46  6E55               	movwf	_eusart1RxTail^0,c	;volatile
  2257                           
  2258                           ;mcc_generated_files/eusart1.c: 126:     eusart1RxCount = 0;
  2259   001A48  0E00               	movlw	0
  2260   001A4A  6E54               	movwf	_eusart1RxCount^0,c	;volatile
  2261   001A4C                     
  2262                           ;mcc_generated_files/eusart1.c: 129:     PIE1bits.RC1IE = 1;
  2263   001A4C  8A9D               	bsf	157,5,c	;volatile
  2264   001A4E  0012               	return		;funcret
  2265   001A50                     __end_of_EUSART1_Initialize:
  2266                           	callstack 0
  2267                           
  2268 ;; *************** function _EUSART1_SetTxInterruptHandler *****************
  2269 ;; Defined at:
  2270 ;;		line 280 in file "mcc_generated_files/eusart1.c"
  2271 ;; Parameters:    Size  Location     Type
  2272 ;;  interruptHan    2    4[COMRAM] PTR FTN()void 
  2273 ;;		 -> EUSART1_Transmit_ISR(1), 
  2274 ;; Auto vars:     Size  Location     Type
  2275 ;;		None
  2276 ;; Return value:  Size  Location     Type
  2277 ;;                  1    wreg      void 
  2278 ;; Registers used:
  2279 ;;		wreg, status,2, status,0
  2280 ;; Tracked objects:
  2281 ;;		On entry : 0/0
  2282 ;;		On exit  : 0/0
  2283 ;;		Unchanged: 0/0
  2284 ;; Data sizes:     COMRAM   BANK0   BANK1   BANK2   BANK3   BANK4   BANK5   BANK6   BANK7   BANK8   BANK9  BANK10  BANK1
      +1  BANK12  BANK13  BANK14
  2285 ;;      Params:         2       0       0       0       0       0       0       0       0       0       0       0       
      +0       0       0       0
  2286 ;;      Locals:         0       0       0       0       0       0       0       0       0       0       0       0       
      +0       0       0       0
  2287 ;;      Temps:          0       0       0       0       0       0       0       0       0       0       0       0       
      +0       0       0       0
  2288 ;;      Totals:         2       0       0       0       0       0       0       0       0       0       0       0       
      +0       0       0       0
  2289 ;;Total ram usage:        2 bytes
  2290 ;; Hardware stack levels used: 1
  2291 ;; Hardware stack levels required when called: 4
  2292 ;; This function calls:
  2293 ;;		Nothing
  2294 ;; This function is called by:
  2295 ;;		_EUSART1_Initialize
  2296 ;; This function uses a non-reentrant model
  2297 ;;
  2298                           
  2299                           	psect	text12
  2300   001BD2                     __ptext12:
  2301                           	callstack 0
  2302   001BD2                     _EUSART1_SetTxInterruptHandler:
  2303                           	callstack 24
  2304   001BD2                     
  2305                           ;mcc_generated_files/eusart1.c: 281:     EUSART1_TxDefaultInterruptHandler = interruptHa
      +                          ndler;
  2306   001BD2  C005  F078         	movff	EUSART1_SetTxInterruptHandler@interruptHandler,_EUSART1_TxDefaultInterruptHandler
  2307   001BD6  C006  F079         	movff	EUSART1_SetTxInterruptHandler@interruptHandler+1,_EUSART1_TxDefaultInterruptHandl
      +                          er+1
  2308   001BDA  0012               	return		;funcret
  2309   001BDC                     __end_of_EUSART1_SetTxInterruptHandler:
  2310                           	callstack 0
  2311                           
  2312 ;; *************** function _EUSART1_SetRxInterruptHandler *****************
  2313 ;; Defined at:
  2314 ;;		line 284 in file "mcc_generated_files/eusart1.c"
  2315 ;; Parameters:    Size  Location     Type
  2316 ;;  interruptHan    2    4[COMRAM] PTR FTN()void 
  2317 ;;		 -> EUSART1_Receive_ISR(1), 
  2318 ;; Auto vars:     Size  Location     Type
  2319 ;;		None
  2320 ;; Return value:  Size  Location     Type
  2321 ;;                  1    wreg      void 
  2322 ;; Registers used:
  2323 ;;		wreg, status,2, status,0
  2324 ;; Tracked objects:
  2325 ;;		On entry : 0/0
  2326 ;;		On exit  : 0/0
  2327 ;;		Unchanged: 0/0
  2328 ;; Data sizes:     COMRAM   BANK0   BANK1   BANK2   BANK3   BANK4   BANK5   BANK6   BANK7   BANK8   BANK9  BANK10  BANK1
      +1  BANK12  BANK13  BANK14
  2329 ;;      Params:         2       0       0       0       0       0       0       0       0       0       0       0       
      +0       0       0       0
  2330 ;;      Locals:         0       0       0       0       0       0       0       0       0       0       0       0       
      +0       0       0       0
  2331 ;;      Temps:          0       0       0       0       0       0       0       0       0       0       0       0       
      +0       0       0       0
  2332 ;;      Totals:         2       0       0       0       0       0       0       0       0       0       0       0       
      +0       0       0       0
  2333 ;;Total ram usage:        2 bytes
  2334 ;; Hardware stack levels used: 1
  2335 ;; Hardware stack levels required when called: 4
  2336 ;; This function calls:
  2337 ;;		Nothing
  2338 ;; This function is called by:
  2339 ;;		_EUSART1_Initialize
  2340 ;; This function uses a non-reentrant model
  2341 ;;
  2342                           
  2343                           	psect	text13
  2344   001BDC                     __ptext13:
  2345                           	callstack 0
  2346   001BDC                     _EUSART1_SetRxInterruptHandler:
  2347                           	callstack 24
  2348   001BDC                     
  2349                           ;mcc_generated_files/eusart1.c: 285:     EUSART1_RxDefaultInterruptHandler = interruptHa
      +                          ndler;
  2350   001BDC  C005  F076         	movff	EUSART1_SetRxInterruptHandler@interruptHandler,_EUSART1_RxDefaultInterruptHandler
  2351   001BE0  C006  F077         	movff	EUSART1_SetRxInterruptHandler@interruptHandler+1,_EUSART1_RxDefaultInterruptHandl
      +                          er+1
  2352   001BE4  0012               	return		;funcret
  2353   001BE6                     __end_of_EUSART1_SetRxInterruptHandler:
  2354                           	callstack 0
  2355                           
  2356 ;; *************** function _EUSART1_SetOverrunErrorHandler *****************
  2357 ;; Defined at:
  2358 ;;		line 272 in file "mcc_generated_files/eusart1.c"
  2359 ;; Parameters:    Size  Location     Type
  2360 ;;  interruptHan    2    4[COMRAM] PTR FTN()void 
  2361 ;;		 -> EUSART1_DefaultOverrunErrorHandler(1), 
  2362 ;; Auto vars:     Size  Location     Type
  2363 ;;		None
  2364 ;; Return value:  Size  Location     Type
  2365 ;;                  1    wreg      void 
  2366 ;; Registers used:
  2367 ;;		wreg, status,2, status,0
  2368 ;; Tracked objects:
  2369 ;;		On entry : 0/0
  2370 ;;		On exit  : 0/0
  2371 ;;		Unchanged: 0/0
  2372 ;; Data sizes:     COMRAM   BANK0   BANK1   BANK2   BANK3   BANK4   BANK5   BANK6   BANK7   BANK8   BANK9  BANK10  BANK1
      +1  BANK12  BANK13  BANK14
  2373 ;;      Params:         2       0       0       0       0       0       0       0       0       0       0       0       
      +0       0       0       0
  2374 ;;      Locals:         0       0       0       0       0       0       0       0       0       0       0       0       
      +0       0       0       0
  2375 ;;      Temps:          0       0       0       0       0       0       0       0       0       0       0       0       
      +0       0       0       0
  2376 ;;      Totals:         2       0       0       0       0       0       0       0       0       0       0       0       
      +0       0       0       0
  2377 ;;Total ram usage:        2 bytes
  2378 ;; Hardware stack levels used: 1
  2379 ;; Hardware stack levels required when called: 4
  2380 ;; This function calls:
  2381 ;;		Nothing
  2382 ;; This function is called by:
  2383 ;;		_EUSART1_Initialize
  2384 ;; This function uses a non-reentrant model
  2385 ;;
  2386                           
  2387                           	psect	text14
  2388   001BE6                     __ptext14:
  2389                           	callstack 0
  2390   001BE6                     _EUSART1_SetOverrunErrorHandler:
  2391                           	callstack 24
  2392   001BE6                     
  2393                           ;mcc_generated_files/eusart1.c: 273:     EUSART1_OverrunErrorHandler = interruptHandler;
  2394   001BE6  C005  F072         	movff	EUSART1_SetOverrunErrorHandler@interruptHandler,_EUSART1_OverrunErrorHandler
  2395   001BEA  C006  F073         	movff	EUSART1_SetOverrunErrorHandler@interruptHandler+1,_EUSART1_OverrunErrorHandler+1
  2396   001BEE  0012               	return		;funcret
  2397   001BF0                     __end_of_EUSART1_SetOverrunErrorHandler:
  2398                           	callstack 0
  2399                           
  2400 ;; *************** function _EUSART1_SetFramingErrorHandler *****************
  2401 ;; Defined at:
  2402 ;;		line 268 in file "mcc_generated_files/eusart1.c"
  2403 ;; Parameters:    Size  Location     Type
  2404 ;;  interruptHan    2    4[COMRAM] PTR FTN()void 
  2405 ;;		 -> EUSART1_DefaultFramingErrorHandler(1), 
  2406 ;; Auto vars:     Size  Location     Type
  2407 ;;		None
  2408 ;; Return value:  Size  Location     Type
  2409 ;;                  1    wreg      void 
  2410 ;; Registers used:
  2411 ;;		wreg, status,2, status,0
  2412 ;; Tracked objects:
  2413 ;;		On entry : 0/0
  2414 ;;		On exit  : 0/0
  2415 ;;		Unchanged: 0/0
  2416 ;; Data sizes:     COMRAM   BANK0   BANK1   BANK2   BANK3   BANK4   BANK5   BANK6   BANK7   BANK8   BANK9  BANK10  BANK1
      +1  BANK12  BANK13  BANK14
  2417 ;;      Params:         2       0       0       0       0       0       0       0       0       0       0       0       
      +0       0       0       0
  2418 ;;      Locals:         0       0       0       0       0       0       0       0       0       0       0       0       
      +0       0       0       0
  2419 ;;      Temps:          0       0       0       0       0       0       0       0       0       0       0       0       
      +0       0       0       0
  2420 ;;      Totals:         2       0       0       0       0       0       0       0       0       0       0       0       
      +0       0       0       0
  2421 ;;Total ram usage:        2 bytes
  2422 ;; Hardware stack levels used: 1
  2423 ;; Hardware stack levels required when called: 4
  2424 ;; This function calls:
  2425 ;;		Nothing
  2426 ;; This function is called by:
  2427 ;;		_EUSART1_Initialize
  2428 ;; This function uses a non-reentrant model
  2429 ;;
  2430                           
  2431                           	psect	text15
  2432   001BF0                     __ptext15:
  2433                           	callstack 0
  2434   001BF0                     _EUSART1_SetFramingErrorHandler:
  2435                           	callstack 24
  2436   001BF0                     
  2437                           ;mcc_generated_files/eusart1.c: 269:     EUSART1_FramingErrorHandler = interruptHandler;
  2438   001BF0  C005  F074         	movff	EUSART1_SetFramingErrorHandler@interruptHandler,_EUSART1_FramingErrorHandler
  2439   001BF4  C006  F075         	movff	EUSART1_SetFramingErrorHandler@interruptHandler+1,_EUSART1_FramingErrorHandler+1
  2440   001BF8  0012               	return		;funcret
  2441   001BFA                     __end_of_EUSART1_SetFramingErrorHandler:
  2442                           	callstack 0
  2443                           
  2444 ;; *************** function _EUSART1_SetErrorHandler *****************
  2445 ;; Defined at:
  2446 ;;		line 276 in file "mcc_generated_files/eusart1.c"
  2447 ;; Parameters:    Size  Location     Type
  2448 ;;  interruptHan    2    4[COMRAM] PTR FTN()void 
  2449 ;;		 -> EUSART1_DefaultErrorHandler(1), 
  2450 ;; Auto vars:     Size  Location     Type
  2451 ;;		None
  2452 ;; Return value:  Size  Location     Type
  2453 ;;                  1    wreg      void 
  2454 ;; Registers used:
  2455 ;;		wreg, status,2, status,0
  2456 ;; Tracked objects:
  2457 ;;		On entry : 0/0
  2458 ;;		On exit  : 0/0
  2459 ;;		Unchanged: 0/0
  2460 ;; Data sizes:     COMRAM   BANK0   BANK1   BANK2   BANK3   BANK4   BANK5   BANK6   BANK7   BANK8   BANK9  BANK10  BANK1
      +1  BANK12  BANK13  BANK14
  2461 ;;      Params:         2       0       0       0       0       0       0       0       0       0       0       0       
      +0       0       0       0
  2462 ;;      Locals:         0       0       0       0       0       0       0       0       0       0       0       0       
      +0       0       0       0
  2463 ;;      Temps:          0       0       0       0       0       0       0       0       0       0       0       0       
      +0       0       0       0
  2464 ;;      Totals:         2       0       0       0       0       0       0       0       0       0       0       0       
      +0       0       0       0
  2465 ;;Total ram usage:        2 bytes
  2466 ;; Hardware stack levels used: 1
  2467 ;; Hardware stack levels required when called: 4
  2468 ;; This function calls:
  2469 ;;		Nothing
  2470 ;; This function is called by:
  2471 ;;		_EUSART1_Initialize
  2472 ;; This function uses a non-reentrant model
  2473 ;;
  2474                           
  2475                           	psect	text16
  2476   001BFA                     __ptext16:
  2477                           	callstack 0
  2478   001BFA                     _EUSART1_SetErrorHandler:
  2479                           	callstack 24
  2480   001BFA                     
  2481                           ;mcc_generated_files/eusart1.c: 277:     EUSART1_ErrorHandler = interruptHandler;
  2482   001BFA  C005  F070         	movff	EUSART1_SetErrorHandler@interruptHandler,_EUSART1_ErrorHandler
  2483   001BFE  C006  F071         	movff	EUSART1_SetErrorHandler@interruptHandler+1,_EUSART1_ErrorHandler+1
  2484   001C02  0012               	return		;funcret
  2485   001C04                     __end_of_EUSART1_SetErrorHandler:
  2486                           	callstack 0
  2487                           
  2488 ;; *************** function _PWM2_LoadDutyValue *****************
  2489 ;; Defined at:
  2490 ;;		line 82 in file "mcc_generated_files/pwm2.c"
  2491 ;; Parameters:    Size  Location     Type
  2492 ;;  dutyValue       2   72[COMRAM] unsigned short 
  2493 ;; Auto vars:     Size  Location     Type
  2494 ;;		None
  2495 ;; Return value:  Size  Location     Type
  2496 ;;                  1    wreg      void 
  2497 ;; Registers used:
  2498 ;;		wreg, status,2, status,0
  2499 ;; Tracked objects:
  2500 ;;		On entry : 0/0
  2501 ;;		On exit  : 0/0
  2502 ;;		Unchanged: 0/0
  2503 ;; Data sizes:     COMRAM   BANK0   BANK1   BANK2   BANK3   BANK4   BANK5   BANK6   BANK7   BANK8   BANK9  BANK10  BANK1
      +1  BANK12  BANK13  BANK14
  2504 ;;      Params:         2       0       0       0       0       0       0       0       0       0       0       0       
      +0       0       0       0
  2505 ;;      Locals:         0       0       0       0       0       0       0       0       0       0       0       0       
      +0       0       0       0
  2506 ;;      Temps:          0       2       0       0       0       0       0       0       0       0       0       0       
      +0       0       0       0
  2507 ;;      Totals:         2       2       0       0       0       0       0       0       0       0       0       0       
      +0       0       0       0
  2508 ;;Total ram usage:        4 bytes
  2509 ;; Hardware stack levels used: 1
  2510 ;; Hardware stack levels required when called: 4
  2511 ;; This function calls:
  2512 ;;		Nothing
  2513 ;; This function is called by:
  2514 ;;		_main
  2515 ;; This function uses a non-reentrant model
  2516 ;;
  2517                           
  2518                           	psect	text17
  2519   001A98                     __ptext17:
  2520                           	callstack 0
  2521   001A98                     _PWM2_LoadDutyValue:
  2522                           	callstack 26
  2523   001A98                     
  2524                           ;mcc_generated_files/pwm2.c: 82: void PWM2_LoadDutyValue(uint16_t dutyValue);mcc_generat
      +                          ed_files/pwm2.c: 83: {;mcc_generated_files/pwm2.c: 85:     CCPR2L = ((dutyValue & 0x03FC
      +                          )>>2);
  2525   001A98  C049  F07A         	movff	PWM2_LoadDutyValue@dutyValue,??_PWM2_LoadDutyValue
  2526   001A9C  C04A  F07B         	movff	PWM2_LoadDutyValue@dutyValue+1,??_PWM2_LoadDutyValue+1
  2527   001AA0  0100               	movlb	0	; () banked
  2528   001AA2  90D8               	bcf	status,0,c
  2529   001AA4  337B               	rrcf	(??_PWM2_LoadDutyValue+1)& (0+255),f,b
  2530   001AA6  337A               	rrcf	??_PWM2_LoadDutyValue& (0+255),f,b
  2531   001AA8  90D8               	bcf	status,0,c
  2532   001AAA  337B               	rrcf	(??_PWM2_LoadDutyValue+1)& (0+255),f,b
  2533   001AAC  337A               	rrcf	??_PWM2_LoadDutyValue& (0+255),f,b
  2534   001AAE  517A               	movf	??_PWM2_LoadDutyValue& (0+255),w,b
  2535   001AB0  010F               	movlb	15	; () banked
  2536   001AB2  6F51               	movwf	81,b	;volatile
  2537                           
  2538                           ;mcc_generated_files/pwm2.c: 88:     CCP2CON = ((uint8_t)(CCP2CON & 0xCF) | ((dutyValue 
      +                          & 0x0003)<<4));
  2539   001AB4  C049  F07A         	movff	PWM2_LoadDutyValue@dutyValue,??_PWM2_LoadDutyValue
  2540   001AB8  0E03               	movlw	3
  2541   001ABA  0100               	movlb	0	; () banked
  2542   001ABC  177A               	andwf	??_PWM2_LoadDutyValue& (0+255),f,b
  2543   001ABE  3B7A               	swapf	??_PWM2_LoadDutyValue& (0+255),f,b
  2544   001AC0  0EF0               	movlw	240
  2545   001AC2  177A               	andwf	??_PWM2_LoadDutyValue& (0+255),f,b
  2546   001AC4  010F               	movlb	15	; () banked
  2547   001AC6  5150               	movf	80,w,b	;volatile
  2548   001AC8  0BCF               	andlw	207
  2549   001ACA  0100               	movlb	0	; () banked
  2550   001ACC  117A               	iorwf	??_PWM2_LoadDutyValue& (0+255),w,b
  2551   001ACE  010F               	movlb	15	; () banked
  2552   001AD0  6F50               	movwf	80,b	;volatile
  2553   001AD2                     
  2554                           ; BSR set to: 15
  2555   001AD2  0012               	return		;funcret
  2556   001AD4                     __end_of_PWM2_LoadDutyValue:
  2557                           	callstack 0
  2558                           
  2559 ;; *************** function _EUSART1_Read *****************
  2560 ;; Defined at:
  2561 ;;		line 151 in file "mcc_generated_files/eusart1.c"
  2562 ;; Parameters:    Size  Location     Type
  2563 ;;		None
  2564 ;; Auto vars:     Size  Location     Type
  2565 ;;  readValue       1    4[COMRAM] unsigned char 
  2566 ;; Return value:  Size  Location     Type
  2567 ;;                  1    wreg      unsigned char 
  2568 ;; Registers used:
  2569 ;;		wreg, fsr2l, fsr2h, status,2, status,0
  2570 ;; Tracked objects:
  2571 ;;		On entry : 0/0
  2572 ;;		On exit  : 0/0
  2573 ;;		Unchanged: 0/0
  2574 ;; Data sizes:     COMRAM   BANK0   BANK1   BANK2   BANK3   BANK4   BANK5   BANK6   BANK7   BANK8   BANK9  BANK10  BANK1
      +1  BANK12  BANK13  BANK14
  2575 ;;      Params:         0       0       0       0       0       0       0       0       0       0       0       0       
      +0       0       0       0
  2576 ;;      Locals:         1       0       0       0       0       0       0       0       0       0       0       0       
      +0       0       0       0
  2577 ;;      Temps:          0       0       0       0       0       0       0       0       0       0       0       0       
      +0       0       0       0
  2578 ;;      Totals:         1       0       0       0       0       0       0       0       0       0       0       0       
      +0       0       0       0
  2579 ;;Total ram usage:        1 bytes
  2580 ;; Hardware stack levels used: 1
  2581 ;; Hardware stack levels required when called: 4
  2582 ;; This function calls:
  2583 ;;		Nothing
  2584 ;; This function is called by:
  2585 ;;		_main
  2586 ;; This function uses a non-reentrant model
  2587 ;;
  2588                           
  2589                           	psect	text18
  2590   001A50                     __ptext18:
  2591                           	callstack 0
  2592   001A50                     _EUSART1_Read:
  2593                           	callstack 26
  2594   001A50                     l1896:
  2595                           
  2596                           ;mcc_generated_files/eusart1.c: 155:     while(0 == eusart1RxCount)
  2597   001A50  5054               	movf	_eusart1RxCount^0,w,c	;volatile
  2598   001A52  B4D8               	btfsc	status,2,c
  2599   001A54  EF2E  F00D         	goto	u1231
  2600   001A58  EF30  F00D         	goto	u1230
  2601   001A5C                     u1231:
  2602   001A5C  EF28  F00D         	goto	l1896
  2603   001A60                     u1230:
  2604   001A60                     
  2605                           ;mcc_generated_files/eusart1.c: 159:     eusart1RxLastError = eusart1RxStatusBuffer[eusa
      +                          rt1RxTail];
  2606   001A60  5055               	movf	_eusart1RxTail^0,w,c
  2607   001A62  0F4B               	addlw	low _eusart1RxStatusBuffer
  2608   001A64  6ED9               	movwf	fsr2l,c
  2609   001A66  6ADA               	clrf	fsr2h,c
  2610   001A68  50DF               	movf	indf2,w,c
  2611   001A6A  6E53               	movwf	_eusart1RxLastError^0,c	;volatile
  2612                           
  2613                           ;mcc_generated_files/eusart1.c: 161:     readValue = eusart1RxBuffer[eusart1RxTail++];
  2614   001A6C  5055               	movf	_eusart1RxTail^0,w,c
  2615   001A6E  0F60               	addlw	low _eusart1RxBuffer
  2616   001A70  6ED9               	movwf	fsr2l,c
  2617   001A72  6ADA               	clrf	fsr2h,c
  2618   001A74  50DF               	movf	indf2,w,c
  2619   001A76  6E05               	movwf	EUSART1_Read@readValue^0,c
  2620   001A78  2A55               	incf	_eusart1RxTail^0,f,c	;volatile
  2621   001A7A                     
  2622                           ;mcc_generated_files/eusart1.c: 162:     if(sizeof(eusart1RxBuffer) <= eusart1RxTail)
  2623   001A7A  0E07               	movlw	7
  2624   001A7C  6455               	cpfsgt	_eusart1RxTail^0,c	;volatile
  2625   001A7E  EF43  F00D         	goto	u1241
  2626   001A82  EF45  F00D         	goto	u1240
  2627   001A86                     u1241:
  2628   001A86  EF47  F00D         	goto	l1906
  2629   001A8A                     u1240:
  2630   001A8A                     
  2631                           ;mcc_generated_files/eusart1.c: 163:     {;mcc_generated_files/eusart1.c: 164:         e
      +                          usart1RxTail = 0;
  2632   001A8A  0E00               	movlw	0
  2633   001A8C  6E55               	movwf	_eusart1RxTail^0,c	;volatile
  2634   001A8E                     l1906:
  2635                           
  2636                           ;mcc_generated_files/eusart1.c: 166:     PIE1bits.RC1IE = 0;
  2637   001A8E  9A9D               	bcf	157,5,c	;volatile
  2638   001A90                     
  2639                           ;mcc_generated_files/eusart1.c: 167:     eusart1RxCount--;
  2640   001A90  0654               	decf	_eusart1RxCount^0,f,c	;volatile
  2641   001A92                     
  2642                           ;mcc_generated_files/eusart1.c: 168:     PIE1bits.RC1IE = 1;
  2643   001A92  8A9D               	bsf	157,5,c	;volatile
  2644   001A94                     
  2645                           ;mcc_generated_files/eusart1.c: 170:     return readValue;
  2646   001A94  5005               	movf	EUSART1_Read@readValue^0,w,c
  2647   001A96  0012               	return		;funcret
  2648   001A98                     __end_of_EUSART1_Read:
  2649                           	callstack 0
  2650                           
  2651 ;; *************** function _INTERRUPT_InterruptManager *****************
  2652 ;; Defined at:
  2653 ;;		line 58 in file "mcc_generated_files/interrupt_manager.c"
  2654 ;; Parameters:    Size  Location     Type
  2655 ;;		None
  2656 ;; Auto vars:     Size  Location     Type
  2657 ;;		None
  2658 ;; Return value:  Size  Location     Type
  2659 ;;                  1    wreg      void 
  2660 ;; Registers used:
  2661 ;;		wreg, fsr2l, fsr2h, status,2, status,0, pcl, pclath, pclatu, tosl, cstack
  2662 ;; Tracked objects:
  2663 ;;		On entry : 0/0
  2664 ;;		On exit  : 0/0
  2665 ;;		Unchanged: 0/0
  2666 ;; Data sizes:     COMRAM   BANK0   BANK1   BANK2   BANK3   BANK4   BANK5   BANK6   BANK7   BANK8   BANK9  BANK10  BANK1
      +1  BANK12  BANK13  BANK14
  2667 ;;      Params:         0       0       0       0       0       0       0       0       0       0       0       0       
      +0       0       0       0
  2668 ;;      Locals:         0       0       0       0       0       0       0       0       0       0       0       0       
      +0       0       0       0
  2669 ;;      Temps:          4       0       0       0       0       0       0       0       0       0       0       0       
      +0       0       0       0
  2670 ;;      Totals:         4       0       0       0       0       0       0       0       0       0       0       0       
      +0       0       0       0
  2671 ;;Total ram usage:        4 bytes
  2672 ;; Hardware stack levels used: 1
  2673 ;; Hardware stack levels required when called: 3
  2674 ;; This function calls:
  2675 ;;		NULL
  2676 ;;		_EUSART1_Receive_ISR
  2677 ;;		_EUSART1_Transmit_ISR
  2678 ;; This function is called by:
  2679 ;;		Interrupt level 2
  2680 ;; This function uses a non-reentrant model
  2681 ;;
  2682                           
  2683                           	psect	intcode
  2684   000008                     __pintcode:
  2685                           	callstack 0
  2686   000008                     _INTERRUPT_InterruptManager:
  2687                           	callstack 24
  2688                           
  2689                           ;incstack = 0
  2690   000008  825A               	bsf	int$flags,1,c	;set compiler interrupt flag (level 2)
  2691   00000A  CFFA F001          	movff	pclath,??_INTERRUPT_InterruptManager
  2692   00000E  CFFB F002          	movff	pclatu,??_INTERRUPT_InterruptManager+1
  2693   000012  CFD9 F003          	movff	fsr2l,??_INTERRUPT_InterruptManager+2
  2694   000016  CFDA F004          	movff	fsr2h,??_INTERRUPT_InterruptManager+3
  2695   00001A                     
  2696                           ;mcc_generated_files/interrupt_manager.c: 61:     if(INTCONbits.PEIE == 1)
  2697   00001A  ACF2               	btfss	242,6,c	;volatile
  2698   00001C  EF12  F000         	goto	i2u136_41
  2699   000020  EF14  F000         	goto	i2u136_40
  2700   000024                     i2u136_41:
  2701   000024  EF50  F000         	goto	i2l259
  2702   000028                     i2u136_40:
  2703   000028                     
  2704                           ;mcc_generated_files/interrupt_manager.c: 62:     {;mcc_generated_files/interrupt_manage
      +                          r.c: 63:         if(PIE1bits.TX1IE == 1 && PIR1bits.TX1IF == 1)
  2705   000028  A89D               	btfss	157,4,c	;volatile
  2706   00002A  EF19  F000         	goto	i2u137_41
  2707   00002E  EF1B  F000         	goto	i2u137_40
  2708   000032                     i2u137_41:
  2709   000032  EF32  F000         	goto	i2l254
  2710   000036                     i2u137_40:
  2711   000036  A89E               	btfss	158,4,c	;volatile
  2712   000038  EF20  F000         	goto	i2u138_41
  2713   00003C  EF22  F000         	goto	i2u138_40
  2714   000040                     i2u138_41:
  2715   000040  EF32  F000         	goto	i2l254
  2716   000044                     i2u138_40:
  2717   000044                     
  2718                           ;mcc_generated_files/interrupt_manager.c: 64:         {;mcc_generated_files/interrupt_ma
      +                          nager.c: 65:             EUSART1_TxDefaultInterruptHandler();
  2719   000044  D802               	call	i2u139_48
  2720   000046  EF30  F000         	goto	i2u139_49
  2721   00004A                     i2u139_48:
  2722   00004A  0005               	push	
  2723   00004C  0100               	movlb	0	; () banked
  2724   00004E  6EFA               	movwf	pclath,c
  2725   000050  5178               	movf	_EUSART1_TxDefaultInterruptHandler& (0+255),w,b
  2726   000052  6EFD               	movwf	tosl,c
  2727   000054  5179               	movf	(_EUSART1_TxDefaultInterruptHandler+1)& (0+255),w,b
  2728   000056  6EFE               	movwf	tosh,c
  2729   000058  50F8               	movf	tblptru,w,c
  2730   00005A  6EFF               	movwf	tosu,c
  2731   00005C  50FA               	movf	pclath,w,c
  2732   00005E  0012               	return		;indir
  2733   000060                     i2u139_49:
  2734                           
  2735                           ;mcc_generated_files/interrupt_manager.c: 66:         }
  2736   000060  EF50  F000         	goto	i2l259
  2737   000064                     i2l254:
  2738   000064  AA9D               	btfss	157,5,c	;volatile
  2739   000066  EF37  F000         	goto	i2u140_41
  2740   00006A  EF39  F000         	goto	i2u140_40
  2741   00006E                     i2u140_41:
  2742   00006E  EF50  F000         	goto	i2l255
  2743   000072                     i2u140_40:
  2744   000072  AA9E               	btfss	158,5,c	;volatile
  2745   000074  EF3E  F000         	goto	i2u141_41
  2746   000078  EF40  F000         	goto	i2u141_40
  2747   00007C                     i2u141_41:
  2748   00007C  EF50  F000         	goto	i2l255
  2749   000080                     i2u141_40:
  2750   000080                     
  2751                           ;mcc_generated_files/interrupt_manager.c: 68:         {;mcc_generated_files/interrupt_ma
      +                          nager.c: 69:             EUSART1_RxDefaultInterruptHandler();
  2752   000080  D802               	call	i2u142_48
  2753   000082  EF4E  F000         	goto	i2u142_49
  2754   000086                     i2u142_48:
  2755   000086  0005               	push	
  2756   000088  0100               	movlb	0	; () banked
  2757   00008A  6EFA               	movwf	pclath,c
  2758   00008C  5176               	movf	_EUSART1_RxDefaultInterruptHandler& (0+255),w,b
  2759   00008E  6EFD               	movwf	tosl,c
  2760   000090  5177               	movf	(_EUSART1_RxDefaultInterruptHandler+1)& (0+255),w,b
  2761   000092  6EFE               	movwf	tosh,c
  2762   000094  50F8               	movf	tblptru,w,c
  2763   000096  6EFF               	movwf	tosu,c
  2764   000098  50FA               	movf	pclath,w,c
  2765   00009A  0012               	return		;indir
  2766   00009C                     i2u142_49:
  2767                           
  2768                           ;mcc_generated_files/interrupt_manager.c: 70:         }
  2769   00009C  EF50  F000         	goto	i2l259
  2770   0000A0                     i2l255:
  2771   0000A0                     i2l259:
  2772   0000A0  C004  FFDA         	movff	??_INTERRUPT_InterruptManager+3,fsr2h
  2773   0000A4  C003  FFD9         	movff	??_INTERRUPT_InterruptManager+2,fsr2l
  2774   0000A8  C002  FFFB         	movff	??_INTERRUPT_InterruptManager+1,pclatu
  2775   0000AC  C001  FFFA         	movff	??_INTERRUPT_InterruptManager,pclath
  2776   0000B0  925A               	bcf	int$flags,1,c	;clear compiler interrupt flag (level 2)
  2777   0000B2  0011               	retfie		f
  2778   0000B4                     __end_of_INTERRUPT_InterruptManager:
  2779                           	callstack 0
  2780                           
  2781 ;; *************** function _EUSART1_Transmit_ISR *****************
  2782 ;; Defined at:
  2783 ;;		line 201 in file "mcc_generated_files/eusart1.c"
  2784 ;; Parameters:    Size  Location     Type
  2785 ;;		None
  2786 ;; Auto vars:     Size  Location     Type
  2787 ;;		None
  2788 ;; Return value:  Size  Location     Type
  2789 ;;                  1    wreg      void 
  2790 ;; Registers used:
  2791 ;;		wreg, fsr2l, fsr2h, status,2, status,0
  2792 ;; Tracked objects:
  2793 ;;		On entry : 0/0
  2794 ;;		On exit  : 0/0
  2795 ;;		Unchanged: 0/0
  2796 ;; Data sizes:     COMRAM   BANK0   BANK1   BANK2   BANK3   BANK4   BANK5   BANK6   BANK7   BANK8   BANK9  BANK10  BANK1
      +1  BANK12  BANK13  BANK14
  2797 ;;      Params:         0       0       0       0       0       0       0       0       0       0       0       0       
      +0       0       0       0
  2798 ;;      Locals:         0       0       0       0       0       0       0       0       0       0       0       0       
      +0       0       0       0
  2799 ;;      Temps:          0       0       0       0       0       0       0       0       0       0       0       0       
      +0       0       0       0
  2800 ;;      Totals:         0       0       0       0       0       0       0       0       0       0       0       0       
      +0       0       0       0
  2801 ;;Total ram usage:        0 bytes
  2802 ;; Hardware stack levels used: 1
  2803 ;; This function calls:
  2804 ;;		Nothing
  2805 ;; This function is called by:
  2806 ;;		_EUSART1_Initialize
  2807 ;;		_INTERRUPT_InterruptManager
  2808 ;; This function uses a non-reentrant model
  2809 ;;
  2810                           
  2811                           	psect	text20
  2812   001AD4                     __ptext20:
  2813                           	callstack 0
  2814   001AD4                     _EUSART1_Transmit_ISR:
  2815                           	callstack 26
  2816   001AD4                     
  2817                           ;mcc_generated_files/eusart1.c: 205:     if(sizeof(eusart1TxBuffer) > eusart1TxBufferRem
      +                          aining)
  2818   001AD4  0E08               	movlw	8
  2819   001AD6  6057               	cpfslt	_eusart1TxBufferRemaining^0,c	;volatile
  2820   001AD8  EF70  F00D         	goto	i2u128_41
  2821   001ADC  EF72  F00D         	goto	i2u128_40
  2822   001AE0                     i2u128_41:
  2823   001AE0  EF86  F00D         	goto	i2l167
  2824   001AE4                     i2u128_40:
  2825   001AE4                     
  2826                           ;mcc_generated_files/eusart1.c: 206:     {;mcc_generated_files/eusart1.c: 207:         T
      +                          XREG1 = eusart1TxBuffer[eusart1TxTail++];
  2827   001AE4  5058               	movf	_eusart1TxTail^0,w,c
  2828   001AE6  0F68               	addlw	low _eusart1TxBuffer
  2829   001AE8  6ED9               	movwf	fsr2l,c
  2830   001AEA  6ADA               	clrf	fsr2h,c
  2831   001AEC  50DF               	movf	indf2,w,c
  2832   001AEE  6EAD               	movwf	173,c	;volatile
  2833   001AF0  2A58               	incf	_eusart1TxTail^0,f,c	;volatile
  2834   001AF2                     
  2835                           ;mcc_generated_files/eusart1.c: 208:         if(sizeof(eusart1TxBuffer) <= eusart1TxTail
      +                          )
  2836   001AF2  0E07               	movlw	7
  2837   001AF4  6458               	cpfsgt	_eusart1TxTail^0,c	;volatile
  2838   001AF6  EF7F  F00D         	goto	i2u129_41
  2839   001AFA  EF81  F00D         	goto	i2u129_40
  2840   001AFE                     i2u129_41:
  2841   001AFE  EF83  F00D         	goto	i2l1944
  2842   001B02                     i2u129_40:
  2843   001B02                     
  2844                           ;mcc_generated_files/eusart1.c: 209:         {;mcc_generated_files/eusart1.c: 210:      
      +                                 eusart1TxTail = 0;
  2845   001B02  0E00               	movlw	0
  2846   001B04  6E58               	movwf	_eusart1TxTail^0,c	;volatile
  2847   001B06                     i2l1944:
  2848                           
  2849                           ;mcc_generated_files/eusart1.c: 212:         eusart1TxBufferRemaining++;
  2850   001B06  2A57               	incf	_eusart1TxBufferRemaining^0,f,c	;volatile
  2851                           
  2852                           ;mcc_generated_files/eusart1.c: 213:     }
  2853   001B08  EF87  F00D         	goto	i2l170
  2854   001B0C                     i2l167:
  2855                           
  2856                           ;mcc_generated_files/eusart1.c: 215:     {;mcc_generated_files/eusart1.c: 216:         P
      +                          IE1bits.TX1IE = 0;
  2857   001B0C  989D               	bcf	157,4,c	;volatile
  2858   001B0E                     i2l170:
  2859   001B0E  0012               	return		;funcret
  2860   001B10                     __end_of_EUSART1_Transmit_ISR:
  2861                           	callstack 0
  2862                           
  2863 ;; *************** function _EUSART1_Receive_ISR *****************
  2864 ;; Defined at:
  2865 ;;		line 220 in file "mcc_generated_files/eusart1.c"
  2866 ;; Parameters:    Size  Location     Type
  2867 ;;		None
  2868 ;; Auto vars:     Size  Location     Type
  2869 ;;		None
  2870 ;; Return value:  Size  Location     Type
  2871 ;;                  1    wreg      void 
  2872 ;; Registers used:
  2873 ;;		wreg, fsr2l, fsr2h, status,2, status,0, pcl, pclath, pclatu, tosl, cstack
  2874 ;; Tracked objects:
  2875 ;;		On entry : 0/0
  2876 ;;		On exit  : 0/0
  2877 ;;		Unchanged: 0/0
  2878 ;; Data sizes:     COMRAM   BANK0   BANK1   BANK2   BANK3   BANK4   BANK5   BANK6   BANK7   BANK8   BANK9  BANK10  BANK1
      +1  BANK12  BANK13  BANK14
  2879 ;;      Params:         0       0       0       0       0       0       0       0       0       0       0       0       
      +0       0       0       0
  2880 ;;      Locals:         0       0       0       0       0       0       0       0       0       0       0       0       
      +0       0       0       0
  2881 ;;      Temps:          0       0       0       0       0       0       0       0       0       0       0       0       
      +0       0       0       0
  2882 ;;      Totals:         0       0       0       0       0       0       0       0       0       0       0       0       
      +0       0       0       0
  2883 ;;Total ram usage:        0 bytes
  2884 ;; Hardware stack levels used: 1
  2885 ;; Hardware stack levels required when called: 2
  2886 ;; This function calls:
  2887 ;;		NULL
  2888 ;;		_EUSART1_DefaultErrorHandler
  2889 ;;		_EUSART1_DefaultFramingErrorHandler
  2890 ;;		_EUSART1_DefaultOverrunErrorHandler
  2891 ;;		_EUSART1_RxDataHandler
  2892 ;; This function is called by:
  2893 ;;		_EUSART1_Initialize
  2894 ;;		_INTERRUPT_InterruptManager
  2895 ;; This function uses a non-reentrant model
  2896 ;;
  2897                           
  2898                           	psect	text21
  2899   00188A                     __ptext21:
  2900                           	callstack 0
  2901   00188A                     _EUSART1_Receive_ISR:
  2902                           	callstack 24
  2903   00188A                     
  2904                           ;mcc_generated_files/eusart1.c: 223:     eusart1RxStatusBuffer[eusart1RxHead].status = 0
      +                          ;
  2905   00188A  5056               	movf	_eusart1RxHead^0,w,c
  2906   00188C  0F4B               	addlw	low _eusart1RxStatusBuffer
  2907   00188E  6ED9               	movwf	fsr2l,c
  2908   001890  6ADA               	clrf	fsr2h,c
  2909   001892  6ADF               	clrf	indf2,c
  2910   001894                     
  2911                           ;mcc_generated_files/eusart1.c: 225:     if(RCSTA1bits.FERR){
  2912   001894  A4AB               	btfss	171,2,c	;volatile
  2913   001896  EF4F  F00C         	goto	i2u130_41
  2914   00189A  EF51  F00C         	goto	i2u130_40
  2915   00189E                     i2u130_41:
  2916   00189E  EF64  F00C         	goto	i2l1954
  2917   0018A2                     i2u130_40:
  2918   0018A2                     
  2919                           ;mcc_generated_files/eusart1.c: 226:         eusart1RxStatusBuffer[eusart1RxHead].ferr =
      +                           1;
  2920   0018A2  5056               	movf	_eusart1RxHead^0,w,c
  2921   0018A4  0F4B               	addlw	low _eusart1RxStatusBuffer
  2922   0018A6  6ED9               	movwf	fsr2l,c
  2923   0018A8  6ADA               	clrf	fsr2h,c
  2924   0018AA  82DF               	bsf	indf2,1,c
  2925   0018AC                     
  2926                           ;mcc_generated_files/eusart1.c: 227:         EUSART1_FramingErrorHandler();
  2927   0018AC  D802               	call	i2u131_48
  2928   0018AE  EF64  F00C         	goto	i2u131_49
  2929   0018B2                     i2u131_48:
  2930   0018B2  0005               	push	
  2931   0018B4  0100               	movlb	0	; () banked
  2932   0018B6  6EFA               	movwf	pclath,c
  2933   0018B8  5174               	movf	_EUSART1_FramingErrorHandler& (0+255),w,b
  2934   0018BA  6EFD               	movwf	tosl,c
  2935   0018BC  5175               	movf	(_EUSART1_FramingErrorHandler+1)& (0+255),w,b
  2936   0018BE  6EFE               	movwf	tosh,c
  2937   0018C0  50F8               	movf	tblptru,w,c
  2938   0018C2  6EFF               	movwf	tosu,c
  2939   0018C4  50FA               	movf	pclath,w,c
  2940   0018C6  0012               	return		;indir
  2941   0018C8                     i2u131_49:
  2942   0018C8                     i2l1954:
  2943                           
  2944                           ;mcc_generated_files/eusart1.c: 230:     if(RCSTA1bits.OERR){
  2945   0018C8  A2AB               	btfss	171,1,c	;volatile
  2946   0018CA  EF69  F00C         	goto	i2u132_41
  2947   0018CE  EF6B  F00C         	goto	i2u132_40
  2948   0018D2                     i2u132_41:
  2949   0018D2  EF7E  F00C         	goto	i2l1960
  2950   0018D6                     i2u132_40:
  2951   0018D6                     
  2952                           ;mcc_generated_files/eusart1.c: 231:         eusart1RxStatusBuffer[eusart1RxHead].oerr =
      +                           1;
  2953   0018D6  5056               	movf	_eusart1RxHead^0,w,c
  2954   0018D8  0F4B               	addlw	low _eusart1RxStatusBuffer
  2955   0018DA  6ED9               	movwf	fsr2l,c
  2956   0018DC  6ADA               	clrf	fsr2h,c
  2957   0018DE  84DF               	bsf	indf2,2,c
  2958   0018E0                     
  2959                           ;mcc_generated_files/eusart1.c: 232:         EUSART1_OverrunErrorHandler();
  2960   0018E0  D802               	call	i2u133_48
  2961   0018E2  EF7E  F00C         	goto	i2u133_49
  2962   0018E6                     i2u133_48:
  2963   0018E6  0005               	push	
  2964   0018E8  0100               	movlb	0	; () banked
  2965   0018EA  6EFA               	movwf	pclath,c
  2966   0018EC  5172               	movf	_EUSART1_OverrunErrorHandler& (0+255),w,b
  2967   0018EE  6EFD               	movwf	tosl,c
  2968   0018F0  5173               	movf	(_EUSART1_OverrunErrorHandler+1)& (0+255),w,b
  2969   0018F2  6EFE               	movwf	tosh,c
  2970   0018F4  50F8               	movf	tblptru,w,c
  2971   0018F6  6EFF               	movwf	tosu,c
  2972   0018F8  50FA               	movf	pclath,w,c
  2973   0018FA  0012               	return		;indir
  2974   0018FC                     i2u133_49:
  2975   0018FC                     i2l1960:
  2976                           
  2977                           ;mcc_generated_files/eusart1.c: 235:     if(eusart1RxStatusBuffer[eusart1RxHead].status)
      +                          {
  2978   0018FC  5056               	movf	_eusart1RxHead^0,w,c
  2979   0018FE  0F4B               	addlw	low _eusart1RxStatusBuffer
  2980   001900  6ED9               	movwf	fsr2l,c
  2981   001902  6ADA               	clrf	fsr2h,c
  2982   001904  50DF               	movf	indf2,w,c
  2983   001906  B4D8               	btfsc	status,2,c
  2984   001908  EF88  F00C         	goto	i2u134_41
  2985   00190C  EF8A  F00C         	goto	i2u134_40
  2986   001910                     i2u134_41:
  2987   001910  EF9A  F00C         	goto	i2l1964
  2988   001914                     i2u134_40:
  2989   001914                     
  2990                           ;mcc_generated_files/eusart1.c: 236:         EUSART1_ErrorHandler();
  2991   001914  D802               	call	i2u135_48
  2992   001916  EF98  F00C         	goto	i2u135_49
  2993   00191A                     i2u135_48:
  2994   00191A  0005               	push	
  2995   00191C  0100               	movlb	0	; () banked
  2996   00191E  6EFA               	movwf	pclath,c
  2997   001920  5170               	movf	_EUSART1_ErrorHandler& (0+255),w,b
  2998   001922  6EFD               	movwf	tosl,c
  2999   001924  5171               	movf	(_EUSART1_ErrorHandler+1)& (0+255),w,b
  3000   001926  6EFE               	movwf	tosh,c
  3001   001928  50F8               	movf	tblptru,w,c
  3002   00192A  6EFF               	movwf	tosu,c
  3003   00192C  50FA               	movf	pclath,w,c
  3004   00192E  0012               	return		;indir
  3005   001930                     i2u135_49:
  3006                           
  3007                           ;mcc_generated_files/eusart1.c: 237:     } else {
  3008   001930  EF9C  F00C         	goto	i2l177
  3009   001934                     i2l1964:
  3010                           
  3011                           ;mcc_generated_files/eusart1.c: 238:         EUSART1_RxDataHandler();
  3012   001934  ECAF  F00D         	call	_EUSART1_RxDataHandler	;wreg free
  3013   001938                     i2l177:
  3014   001938  0012               	return		;funcret
  3015   00193A                     __end_of_EUSART1_Receive_ISR:
  3016                           	callstack 0
  3017                           
  3018 ;; *************** function _EUSART1_DefaultOverrunErrorHandler *****************
  3019 ;; Defined at:
  3020 ;;		line 256 in file "mcc_generated_files/eusart1.c"
  3021 ;; Parameters:    Size  Location     Type
  3022 ;;		None
  3023 ;; Auto vars:     Size  Location     Type
  3024 ;;		None
  3025 ;; Return value:  Size  Location     Type
  3026 ;;                  1    wreg      void 
  3027 ;; Registers used:
  3028 ;;		None
  3029 ;; Tracked objects:
  3030 ;;		On entry : 0/0
  3031 ;;		On exit  : 0/0
  3032 ;;		Unchanged: 0/0
  3033 ;; Data sizes:     COMRAM   BANK0   BANK1   BANK2   BANK3   BANK4   BANK5   BANK6   BANK7   BANK8   BANK9  BANK10  BANK1
      +1  BANK12  BANK13  BANK14
  3034 ;;      Params:         0       0       0       0       0       0       0       0       0       0       0       0       
      +0       0       0       0
  3035 ;;      Locals:         0       0       0       0       0       0       0       0       0       0       0       0       
      +0       0       0       0
  3036 ;;      Temps:          0       0       0       0       0       0       0       0       0       0       0       0       
      +0       0       0       0
  3037 ;;      Totals:         0       0       0       0       0       0       0       0       0       0       0       0       
      +0       0       0       0
  3038 ;;Total ram usage:        0 bytes
  3039 ;; Hardware stack levels used: 1
  3040 ;; This function calls:
  3041 ;;		Nothing
  3042 ;; This function is called by:
  3043 ;;		_EUSART1_Initialize
  3044 ;;		_EUSART1_Receive_ISR
  3045 ;; This function uses a non-reentrant model
  3046 ;;
  3047                           
  3048                           	psect	text22
  3049   001C04                     __ptext22:
  3050                           	callstack 0
  3051   001C04                     _EUSART1_DefaultOverrunErrorHandler:
  3052                           	callstack 25
  3053   001C04                     
  3054                           ;mcc_generated_files/eusart1.c: 259:     RCSTA1bits.CREN = 0;
  3055   001C04  98AB               	bcf	171,4,c	;volatile
  3056                           
  3057                           ;mcc_generated_files/eusart1.c: 260:     RCSTA1bits.CREN = 1;
  3058   001C06  88AB               	bsf	171,4,c	;volatile
  3059   001C08  0012               	return		;funcret
  3060   001C0A                     __end_of_EUSART1_DefaultOverrunErrorHandler:
  3061                           	callstack 0
  3062                           
  3063 ;; *************** function _EUSART1_DefaultFramingErrorHandler *****************
  3064 ;; Defined at:
  3065 ;;		line 254 in file "mcc_generated_files/eusart1.c"
  3066 ;; Parameters:    Size  Location     Type
  3067 ;;		None
  3068 ;; Auto vars:     Size  Location     Type
  3069 ;;		None
  3070 ;; Return value:  Size  Location     Type
  3071 ;;                  1    wreg      void 
  3072 ;; Registers used:
  3073 ;;		None
  3074 ;; Tracked objects:
  3075 ;;		On entry : 0/0
  3076 ;;		On exit  : 0/0
  3077 ;;		Unchanged: 0/0
  3078 ;; Data sizes:     COMRAM   BANK0   BANK1   BANK2   BANK3   BANK4   BANK5   BANK6   BANK7   BANK8   BANK9  BANK10  BANK1
      +1  BANK12  BANK13  BANK14
  3079 ;;      Params:         0       0       0       0       0       0       0       0       0       0       0       0       
      +0       0       0       0
  3080 ;;      Locals:         0       0       0       0       0       0       0       0       0       0       0       0       
      +0       0       0       0
  3081 ;;      Temps:          0       0       0       0       0       0       0       0       0       0       0       0       
      +0       0       0       0
  3082 ;;      Totals:         0       0       0       0       0       0       0       0       0       0       0       0       
      +0       0       0       0
  3083 ;;Total ram usage:        0 bytes
  3084 ;; Hardware stack levels used: 1
  3085 ;; This function calls:
  3086 ;;		Nothing
  3087 ;; This function is called by:
  3088 ;;		_EUSART1_Initialize
  3089 ;;		_EUSART1_Receive_ISR
  3090 ;; This function uses a non-reentrant model
  3091 ;;
  3092                           
  3093                           	psect	text23
  3094   001C14                     __ptext23:
  3095                           	callstack 0
  3096   001C14                     _EUSART1_DefaultFramingErrorHandler:
  3097                           	callstack 25
  3098   001C14  0012               	return		;funcret
  3099   001C16                     __end_of_EUSART1_DefaultFramingErrorHandler:
  3100                           	callstack 0
  3101                           
  3102 ;; *************** function _EUSART1_DefaultErrorHandler *****************
  3103 ;; Defined at:
  3104 ;;		line 264 in file "mcc_generated_files/eusart1.c"
  3105 ;; Parameters:    Size  Location     Type
  3106 ;;		None
  3107 ;; Auto vars:     Size  Location     Type
  3108 ;;		None
  3109 ;; Return value:  Size  Location     Type
  3110 ;;                  1    wreg      void 
  3111 ;; Registers used:
  3112 ;;		wreg, fsr2l, fsr2h, status,2, status,0, cstack
  3113 ;; Tracked objects:
  3114 ;;		On entry : 0/0
  3115 ;;		On exit  : 0/0
  3116 ;;		Unchanged: 0/0
  3117 ;; Data sizes:     COMRAM   BANK0   BANK1   BANK2   BANK3   BANK4   BANK5   BANK6   BANK7   BANK8   BANK9  BANK10  BANK1
      +1  BANK12  BANK13  BANK14
  3118 ;;      Params:         0       0       0       0       0       0       0       0       0       0       0       0       
      +0       0       0       0
  3119 ;;      Locals:         0       0       0       0       0       0       0       0       0       0       0       0       
      +0       0       0       0
  3120 ;;      Temps:          0       0       0       0       0       0       0       0       0       0       0       0       
      +0       0       0       0
  3121 ;;      Totals:         0       0       0       0       0       0       0       0       0       0       0       0       
      +0       0       0       0
  3122 ;;Total ram usage:        0 bytes
  3123 ;; Hardware stack levels used: 1
  3124 ;; Hardware stack levels required when called: 1
  3125 ;; This function calls:
  3126 ;;		_EUSART1_RxDataHandler
  3127 ;; This function is called by:
  3128 ;;		_EUSART1_Initialize
  3129 ;;		_EUSART1_Receive_ISR
  3130 ;; This function uses a non-reentrant model
  3131 ;;
  3132                           
  3133                           	psect	text24
  3134   001C0A                     __ptext24:
  3135                           	callstack 0
  3136   001C0A                     _EUSART1_DefaultErrorHandler:
  3137                           	callstack 24
  3138   001C0A                     
  3139                           ;mcc_generated_files/eusart1.c: 265:     EUSART1_RxDataHandler();
  3140   001C0A  ECAF  F00D         	call	_EUSART1_RxDataHandler	;wreg free
  3141   001C0E  0012               	return		;funcret
  3142   001C10                     __end_of_EUSART1_DefaultErrorHandler:
  3143                           	callstack 0
  3144                           
  3145 ;; *************** function _EUSART1_RxDataHandler *****************
  3146 ;; Defined at:
  3147 ;;		line 244 in file "mcc_generated_files/eusart1.c"
  3148 ;; Parameters:    Size  Location     Type
  3149 ;;		None
  3150 ;; Auto vars:     Size  Location     Type
  3151 ;;		None
  3152 ;; Return value:  Size  Location     Type
  3153 ;;                  1    wreg      void 
  3154 ;; Registers used:
  3155 ;;		wreg, fsr2l, fsr2h, status,2, status,0
  3156 ;; Tracked objects:
  3157 ;;		On entry : 0/0
  3158 ;;		On exit  : 0/0
  3159 ;;		Unchanged: 0/0
  3160 ;; Data sizes:     COMRAM   BANK0   BANK1   BANK2   BANK3   BANK4   BANK5   BANK6   BANK7   BANK8   BANK9  BANK10  BANK1
      +1  BANK12  BANK13  BANK14
  3161 ;;      Params:         0       0       0       0       0       0       0       0       0       0       0       0       
      +0       0       0       0
  3162 ;;      Locals:         0       0       0       0       0       0       0       0       0       0       0       0       
      +0       0       0       0
  3163 ;;      Temps:          0       0       0       0       0       0       0       0       0       0       0       0       
      +0       0       0       0
  3164 ;;      Totals:         0       0       0       0       0       0       0       0       0       0       0       0       
      +0       0       0       0
  3165 ;;Total ram usage:        0 bytes
  3166 ;; Hardware stack levels used: 1
  3167 ;; This function calls:
  3168 ;;		Nothing
  3169 ;; This function is called by:
  3170 ;;		_EUSART1_Receive_ISR
  3171 ;;		_EUSART1_DefaultErrorHandler
  3172 ;; This function uses a non-reentrant model
  3173 ;;
  3174                           
  3175                           	psect	text25
  3176   001B5E                     __ptext25:
  3177                           	callstack 0
  3178   001B5E                     _EUSART1_RxDataHandler:
  3179                           	callstack 25
  3180   001B5E                     
  3181                           ;mcc_generated_files/eusart1.c: 246:     eusart1RxBuffer[eusart1RxHead++] = RCREG1;
  3182   001B5E  5056               	movf	_eusart1RxHead^0,w,c
  3183   001B60  0F60               	addlw	low _eusart1RxBuffer
  3184   001B62  6ED9               	movwf	fsr2l,c
  3185   001B64  6ADA               	clrf	fsr2h,c
  3186   001B66  CFAE FFDF          	movff	4014,indf2	;volatile
  3187   001B6A  2A56               	incf	_eusart1RxHead^0,f,c	;volatile
  3188   001B6C                     
  3189                           ;mcc_generated_files/eusart1.c: 247:     if(sizeof(eusart1RxBuffer) <= eusart1RxHead)
  3190   001B6C  0E07               	movlw	7
  3191   001B6E  6456               	cpfsgt	_eusart1RxHead^0,c	;volatile
  3192   001B70  EFBC  F00D         	goto	i2u73_41
  3193   001B74  EFBE  F00D         	goto	i2u73_40
  3194   001B78                     i2u73_41:
  3195   001B78  EFC0  F00D         	goto	i2l1540
  3196   001B7C                     i2u73_40:
  3197   001B7C                     
  3198                           ;mcc_generated_files/eusart1.c: 248:     {;mcc_generated_files/eusart1.c: 249:         e
      +                          usart1RxHead = 0;
  3199   001B7C  0E00               	movlw	0
  3200   001B7E  6E56               	movwf	_eusart1RxHead^0,c	;volatile
  3201   001B80                     i2l1540:
  3202                           
  3203                           ;mcc_generated_files/eusart1.c: 251:     eusart1RxCount++;
  3204   001B80  2A54               	incf	_eusart1RxCount^0,f,c	;volatile
  3205   001B82  0012               	return		;funcret
  3206   001B84                     __end_of_EUSART1_RxDataHandler:
  3207                           	callstack 0
  3208                           
  3209                           	psect	smallconst
  3210   000F00                     __psmallconst:
  3211                           	callstack 0
  3212   000F00  00                 	db	0
  3213   000F01  00                 	db	0	; dummy byte at the end
  3214   000000                     
  3215                           	psect	text26
  3216   000000                     __ptext26:
  3217                           	callstack 0
  3218   000000                     
  3219                           	psect	rparam
  3220   000000                     
  3221                           	psect	temp
  3222   00005A                     btemp:
  3223                           	callstack 0
  3224   00005A                     	ds	1
  3225   000000                     int$flags	set	btemp
  3226   000000                     wtemp8	set	btemp+1
  3227   000000                     ttemp5	set	btemp+1
  3228   000000                     ttemp6	set	btemp+4
  3229   000000                     ttemp7	set	btemp+8
  3230                           
  3231                           	psect	config
  3232                           
  3233                           ;Config register CONFIG1L @ 0x300000
  3234                           ;	VREG Sleep Enable bit
  3235                           ;	RETEN = OFF, Ultra low-power regulator is Disabled (Controlled by REGSLP bit)
  3236                           ;	LF-INTOSC Low-power Enable bit
  3237                           ;	INTOSCSEL = HIGH, LF-INTOSC in High-power mode during Sleep
  3238                           ;	SOSC Power Selection and mode Configuration bits
  3239                           ;	SOSCSEL = DIG, Digital (SCLKI) mode
  3240                           ;	Extended Instruction Set
  3241                           ;	XINST = OFF, Disabled
  3242   300000                     	org	3145728
  3243   300000  15                 	db	21
  3244                           
  3245                           ;Config register CONFIG1H @ 0x300001
  3246                           ;	Oscillator
  3247                           ;	FOSC = INTIO2, Internal RC oscillator
  3248                           ;	PLL x4 Enable bit
  3249                           ;	PLLCFG = OFF, Disabled
  3250                           ;	Fail-Safe Clock Monitor
  3251                           ;	FCMEN = OFF, Disabled
  3252                           ;	Internal External Oscillator Switch Over Mode
  3253                           ;	IESO = OFF, Disabled
  3254   300001                     	org	3145729
  3255   300001  08                 	db	8
  3256                           
  3257                           ;Config register CONFIG2L @ 0x300002
  3258                           ;	Power Up Timer
  3259                           ;	PWRTEN = OFF, Disabled
  3260                           ;	Brown Out Detect
  3261                           ;	BOREN = SBORDIS, Enabled in hardware, SBOREN disabled
  3262                           ;	Brown-out Reset Voltage bits
  3263                           ;	BORV = 3, 1.8V
  3264                           ;	BORMV Power level
  3265                           ;	BORPWR = ZPBORMV, ZPBORMV instead of BORMV is selected
  3266   300002                     	org	3145730
  3267   300002  7F                 	db	127
  3268                           
  3269                           ;Config register CONFIG2H @ 0x300003
  3270                           ;	Watchdog Timer
  3271                           ;	WDTEN = OFF, WDT disabled in hardware; SWDTEN bit disabled
  3272                           ;	Watchdog Postscaler
  3273                           ;	WDTPS = 1048576, 1:1048576
  3274   300003                     	org	3145731
  3275   300003  50                 	db	80
  3276                           
  3277                           ; Padding undefined space
  3278   300004                     	org	3145732
  3279   300004  FF                 	db	255
  3280                           
  3281                           ;Config register CONFIG3H @ 0x300005
  3282                           ;	ECAN Mux bit
  3283                           ;	CANMX = PORTB, ECAN TX and RX pins are located on RB2 and RB3, respectively
  3284                           ;	MSSP address masking
  3285                           ;	MSSPMSK = MSK7, 7 Bit address masking mode
  3286                           ;	Master Clear Enable
  3287                           ;	MCLRE = ON, MCLR Enabled, RE3 Disabled
  3288   300005                     	org	3145733
  3289   300005  89                 	db	137
  3290                           
  3291                           ;Config register CONFIG4L @ 0x300006
  3292                           ;	Stack Overflow Reset
  3293                           ;	STVREN = ON, Enabled
  3294                           ;	Boot Block Size
  3295                           ;	BBSIZ = BB2K, 2K word Boot Block size
  3296                           ;	Background Debugger
  3297                           ;	DEBUG = 0x1, unprogrammed default
  3298   300006                     	org	3145734
  3299   300006  91                 	db	145
  3300                           
  3301                           ; Padding undefined space
  3302   300007                     	org	3145735
  3303   300007  FF                 	db	255
  3304                           
  3305                           ;Config register CONFIG5L @ 0x300008
  3306                           ;	Code Protect 00800-01FFF
  3307                           ;	CP0 = OFF, Disabled
  3308                           ;	Code Protect 02000-03FFF
  3309                           ;	CP1 = OFF, Disabled
  3310                           ;	Code Protect 04000-05FFF
  3311                           ;	CP2 = OFF, Disabled
  3312                           ;	Code Protect 06000-07FFF
  3313                           ;	CP3 = OFF, Disabled
  3314   300008                     	org	3145736
  3315   300008  0F                 	db	15
  3316                           
  3317                           ;Config register CONFIG5H @ 0x300009
  3318                           ;	Code Protect Boot
  3319                           ;	CPB = OFF, Disabled
  3320                           ;	Data EE Read Protect
  3321                           ;	CPD = OFF, Disabled
  3322   300009                     	org	3145737
  3323   300009  C0                 	db	192
  3324                           
  3325                           ;Config register CONFIG6L @ 0x30000A
  3326                           ;	Table Write Protect 00800-01FFF
  3327                           ;	WRT0 = OFF, Disabled
  3328                           ;	Table Write Protect 02000-03FFF
  3329                           ;	WRT1 = OFF, Disabled
  3330                           ;	Table Write Protect 04000-05FFF
  3331                           ;	WRT2 = OFF, Disabled
  3332                           ;	Table Write Protect 06000-07FFF
  3333                           ;	WRT3 = OFF, Disabled
  3334   30000A                     	org	3145738
  3335   30000A  0F                 	db	15
  3336                           
  3337                           ;Config register CONFIG6H @ 0x30000B
  3338                           ;	Config. Write Protect
  3339                           ;	WRTC = OFF, Disabled
  3340                           ;	Table Write Protect Boot
  3341                           ;	WRTB = OFF, Disabled
  3342                           ;	Data EE Write Protect
  3343                           ;	WRTD = OFF, Disabled
  3344   30000B                     	org	3145739
  3345   30000B  E0                 	db	224
  3346                           
  3347                           ;Config register CONFIG7L @ 0x30000C
  3348                           ;	Table Read Protect 00800-01FFF
  3349                           ;	EBTR0 = OFF, Disabled
  3350                           ;	Table Read Protect 02000-03FFF
  3351                           ;	EBTR1 = OFF, Disabled
  3352                           ;	Table Read Protect 04000-05FFF
  3353                           ;	EBTR2 = OFF, Disabled
  3354                           ;	Table Read Protect 06000-07FFF
  3355                           ;	EBTR3 = OFF, Disabled
  3356   30000C                     	org	3145740
  3357   30000C  0F                 	db	15
  3358                           
  3359                           ;Config register CONFIG7H @ 0x30000D
  3360                           ;	Table Read Protect Boot
  3361                           ;	EBTRB = OFF, Disabled
  3362   30000D                     	org	3145741
  3363   30000D  40                 	db	64
  3364                           tosu	equ	0xFFF
  3365                           tosh	equ	0xFFE
  3366                           tosl	equ	0xFFD
  3367                           stkptr	equ	0xFFC
  3368                           pclatu	equ	0xFFB
  3369                           pclath	equ	0xFFA
  3370                           pcl	equ	0xFF9
  3371                           tblptru	equ	0xFF8
  3372                           tblptrh	equ	0xFF7
  3373                           tblptrl	equ	0xFF6
  3374                           tablat	equ	0xFF5
  3375                           prodh	equ	0xFF4
  3376                           prodl	equ	0xFF3
  3377                           indf0	equ	0xFEF
  3378                           postinc0	equ	0xFEE
  3379                           postdec0	equ	0xFED
  3380                           preinc0	equ	0xFEC
  3381                           plusw0	equ	0xFEB
  3382                           fsr0h	equ	0xFEA
  3383                           fsr0l	equ	0xFE9
  3384                           wreg	equ	0xFE8
  3385                           indf1	equ	0xFE7
  3386                           postinc1	equ	0xFE6
  3387                           postdec1	equ	0xFE5
  3388                           preinc1	equ	0xFE4
  3389                           plusw1	equ	0xFE3
  3390                           fsr1h	equ	0xFE2
  3391                           fsr1l	equ	0xFE1
  3392                           bsr	equ	0xFE0
  3393                           indf2	equ	0xFDF
  3394                           postinc2	equ	0xFDE
  3395                           postdec2	equ	0xFDD
  3396                           preinc2	equ	0xFDC
  3397                           plusw2	equ	0xFDB
  3398                           fsr2h	equ	0xFDA
  3399                           fsr2l	equ	0xFD9
  3400                           status	equ	0xFD8

Data Sizes:
    Strings     0
    Constant    0
    Data        0
    BSS         31
    Persistent  10
    Stack       0

Auto Spaces:
    Space          Size  Autos    Used
    COMRAM           94     74      89
    BANK0           160      4      30
    BANK1           256      0       0
    BANK2           256      0       0
    BANK3           256      0       0
    BANK4           256      0       0
    BANK5           256      0       0
    BANK6           256      0       0
    BANK7           256      0       0
    BANK8           256      0       0
    BANK9           256      0       0
    BANK10          256      0       0
    BANK11          256      0       0
    BANK12          256      0       0
    BANK13          256      0       0
    BANK14           65      0       0

Pointer List with Targets:

    EUSART1_ErrorHandler	PTR FTN()void  size(2) Largest target is 1
		 -> EUSART1_DefaultErrorHandler(), NULL(), 

    EUSART1_FramingErrorHandler	PTR FTN()void  size(2) Largest target is 1
		 -> EUSART1_DefaultFramingErrorHandler(), NULL(), 

    EUSART1_OverrunErrorHandler	PTR FTN()void  size(2) Largest target is 1
		 -> EUSART1_DefaultOverrunErrorHandler(), NULL(), 

    EUSART1_RxDefaultInterruptHandler	PTR FTN()void  size(2) Largest target is 1
		 -> EUSART1_Receive_ISR(), NULL(), 

    EUSART1_SetErrorHandler@interruptHandler	PTR FTN()void  size(2) Largest target is 1
		 -> EUSART1_DefaultErrorHandler(), 

    EUSART1_SetFramingErrorHandler@interruptHandler	PTR FTN()void  size(2) Largest target is 1
		 -> EUSART1_DefaultFramingErrorHandler(), 

    EUSART1_SetOverrunErrorHandler@interruptHandler	PTR FTN()void  size(2) Largest target is 1
		 -> EUSART1_DefaultOverrunErrorHandler(), 

    EUSART1_SetRxInterruptHandler@interruptHandler	PTR FTN()void  size(2) Largest target is 1
		 -> EUSART1_Receive_ISR(), 

    EUSART1_SetTxInterruptHandler@interruptHandler	PTR FTN()void  size(2) Largest target is 1
		 -> EUSART1_Transmit_ISR(), 

    EUSART1_TxDefaultInterruptHandler	PTR FTN()void  size(2) Largest target is 1
		 -> EUSART1_Transmit_ISR(), NULL(), 


Critical Paths under _main in COMRAM

    _main->_PWM2_LoadDutyValue
    _trouver_CCPR->___fltol
    ___fltol->___flmul
    ___flmul->___fldiv
    _EUSART1_Initialize->_EUSART1_SetErrorHandler
    _EUSART1_Initialize->_EUSART1_SetFramingErrorHandler
    _EUSART1_Initialize->_EUSART1_SetOverrunErrorHandler
    _EUSART1_Initialize->_EUSART1_SetRxInterruptHandler
    _EUSART1_Initialize->_EUSART1_SetTxInterruptHandler
    _PWM2_LoadDutyValue->_trouver_CCPR

Critical Paths under _INTERRUPT_InterruptManager in COMRAM

    None.

Critical Paths under _main in BANK0

    _main->_PWM2_LoadDutyValue

Critical Paths under _INTERRUPT_InterruptManager in BANK0

    None.

Critical Paths under _main in BANK1

    None.

Critical Paths under _INTERRUPT_InterruptManager in BANK1

    None.

Critical Paths under _main in BANK2

    None.

Critical Paths under _INTERRUPT_InterruptManager in BANK2

    None.

Critical Paths under _main in BANK3

    None.

Critical Paths under _INTERRUPT_InterruptManager in BANK3

    None.

Critical Paths under _main in BANK4

    None.

Critical Paths under _INTERRUPT_InterruptManager in BANK4

    None.

Critical Paths under _main in BANK5

    None.

Critical Paths under _INTERRUPT_InterruptManager in BANK5

    None.

Critical Paths under _main in BANK6

    None.

Critical Paths under _INTERRUPT_InterruptManager in BANK6

    None.

Critical Paths under _main in BANK7

    None.

Critical Paths under _INTERRUPT_InterruptManager in BANK7

    None.

Critical Paths under _main in BANK8

    None.

Critical Paths under _INTERRUPT_InterruptManager in BANK8

    None.

Critical Paths under _main in BANK9

    None.

Critical Paths under _INTERRUPT_InterruptManager in BANK9

    None.

Critical Paths under _main in BANK10

    None.

Critical Paths under _INTERRUPT_InterruptManager in BANK10

    None.

Critical Paths under _main in BANK11

    None.

Critical Paths under _INTERRUPT_InterruptManager in BANK11

    None.

Critical Paths under _main in BANK12

    None.

Critical Paths under _INTERRUPT_InterruptManager in BANK12

    None.

Critical Paths under _main in BANK13

    None.

Critical Paths under _INTERRUPT_InterruptManager in BANK13

    None.

Critical Paths under _main in BANK14

    None.

Critical Paths under _INTERRUPT_InterruptManager in BANK14

    None.

Call Graph Tables:

 ---------------------------------------------------------------------------------
 (Depth) Function   	        Calls       Base Space   Used Autos Params    Refs
 ---------------------------------------------------------------------------------
 (0) _main                                                 2     2      0    4871
                                              2 BANK0      2     2      0
                       _EUSART1_Read
                 _PWM2_LoadDutyValue
                  _SYSTEM_Initialize
                       _trouver_CCPR
 ---------------------------------------------------------------------------------
 (1) _trouver_CCPR                                         8     4      4    4025
                                             64 COMRAM     8     4      4
                            ___fldiv
                            ___flmul
                            ___fltol
 ---------------------------------------------------------------------------------
 (2) ___fltol                                             10     6      4     305
                                             54 COMRAM    10     6      4
                            ___fldiv (ARG)
                            ___flmul (ARG)
 ---------------------------------------------------------------------------------
 (2) ___flmul                                             25    17      8    1896
                                             29 COMRAM    25    17      8
                            ___fldiv (ARG)
 ---------------------------------------------------------------------------------
 (2) ___fldiv                                             25    17      8    1551
                                              4 COMRAM    25    17      8
 ---------------------------------------------------------------------------------
 (1) _SYSTEM_Initialize                                    0     0      0     490
                 _EUSART1_Initialize
               _INTERRUPT_Initialize
              _OSCILLATOR_Initialize
             _PIN_MANAGER_Initialize
                    _PWM2_Initialize
                    _TMR2_Initialize
 ---------------------------------------------------------------------------------
 (2) _TMR2_Initialize                                      0     0      0       0
 ---------------------------------------------------------------------------------
 (2) _PWM2_Initialize                                      0     0      0       0
 ---------------------------------------------------------------------------------
 (2) _PIN_MANAGER_Initialize                               0     0      0       0
 ---------------------------------------------------------------------------------
 (2) _OSCILLATOR_Initialize                                0     0      0       0
 ---------------------------------------------------------------------------------
 (2) _INTERRUPT_Initialize                                 0     0      0       0
 ---------------------------------------------------------------------------------
 (2) _EUSART1_Initialize                                   0     0      0     490
            _EUSART1_SetErrorHandler
     _EUSART1_SetFramingErrorHandler
     _EUSART1_SetOverrunErrorHandler
      _EUSART1_SetRxInterruptHandler
      _EUSART1_SetTxInterruptHandler
 ---------------------------------------------------------------------------------
 (3) _EUSART1_SetTxInterruptHandler                        2     0      2      98
                                              4 COMRAM     2     0      2
 ---------------------------------------------------------------------------------
 (3) _EUSART1_SetRxInterruptHandler                        2     0      2      98
                                              4 COMRAM     2     0      2
 ---------------------------------------------------------------------------------
 (3) _EUSART1_SetOverrunErrorHandler                       2     0      2      98
                                              4 COMRAM     2     0      2
 ---------------------------------------------------------------------------------
 (3) _EUSART1_SetFramingErrorHandler                       2     0      2      98
                                              4 COMRAM     2     0      2
 ---------------------------------------------------------------------------------
 (3) _EUSART1_SetErrorHandler                              2     0      2      98
                                              4 COMRAM     2     0      2
 ---------------------------------------------------------------------------------
 (1) _PWM2_LoadDutyValue                                   4     2      2     332
                                             72 COMRAM     2     0      2
                                              0 BANK0      2     2      0
                       _trouver_CCPR (ARG)
 ---------------------------------------------------------------------------------
 (1) _EUSART1_Read                                         1     1      0      24
                                              4 COMRAM     1     1      0
 ---------------------------------------------------------------------------------
 Estimated maximum stack depth 3
 ---------------------------------------------------------------------------------
 (Depth) Function   	        Calls       Base Space   Used Autos Params    Refs
 ---------------------------------------------------------------------------------
 (4) _INTERRUPT_InterruptManager                           4     4      0       0
                                              0 COMRAM     4     4      0
                                NULL *
                _EUSART1_Receive_ISR *
               _EUSART1_Transmit_ISR *
 ---------------------------------------------------------------------------------
 (5) _EUSART1_Transmit_ISR                                 0     0      0       0
 ---------------------------------------------------------------------------------
 (5) _EUSART1_Receive_ISR                                  0     0      0       0
                                NULL *
        _EUSART1_DefaultErrorHandler *
 _EUSART1_DefaultFramingErrorHandler *
 _EUSART1_DefaultOverrunErrorHandler *
              _EUSART1_RxDataHandler
 ---------------------------------------------------------------------------------
 (6) _EUSART1_DefaultOverrunErrorHandler                   0     0      0       0
 ---------------------------------------------------------------------------------
 (6) _EUSART1_DefaultFramingErrorHandler                   0     0      0       0
 ---------------------------------------------------------------------------------
 (6) _EUSART1_DefaultErrorHandler                          0     0      0       0
              _EUSART1_RxDataHandler
 ---------------------------------------------------------------------------------
 (6) _EUSART1_RxDataHandler                                0     0      0       0
 ---------------------------------------------------------------------------------
 (6) NULL(Fake)                                            0     0      0       0
 ---------------------------------------------------------------------------------
 Estimated maximum stack depth 6
 ---------------------------------------------------------------------------------

 Call Graph Graphs:

 _main (ROOT)
   _EUSART1_Read
   _PWM2_LoadDutyValue
     _trouver_CCPR (ARG)
       ___fldiv
       ___flmul
         ___fldiv (ARG)
       ___fltol
         ___fldiv (ARG)
         ___flmul (ARG)
   _SYSTEM_Initialize
     _EUSART1_Initialize
       _EUSART1_SetErrorHandler
       _EUSART1_SetFramingErrorHandler
       _EUSART1_SetOverrunErrorHandler
       _EUSART1_SetRxInterruptHandler
       _EUSART1_SetTxInterruptHandler
     _INTERRUPT_Initialize
     _OSCILLATOR_Initialize
     _PIN_MANAGER_Initialize
     _PWM2_Initialize
     _TMR2_Initialize
   _trouver_CCPR

 _INTERRUPT_InterruptManager (ROOT)
   NULL(Fake) *
   _EUSART1_Receive_ISR *
     NULL(Fake) *
     _EUSART1_DefaultErrorHandler *
       _EUSART1_RxDataHandler
     _EUSART1_DefaultFramingErrorHandler *
     _EUSART1_DefaultOverrunErrorHandler *
     _EUSART1_RxDataHandler *
   _EUSART1_Transmit_ISR *

 Address spaces:
Name               Size   Autos  Total    Cost      Usage
BIGRAM             E40      0       0      49        0.0%
EEDATA             400      0       0       0        0.0%
BITBIGSFRlllll     10F      0       0      37        0.0%
BITBANK13          100      0       0      46        0.0%
BANK13             100      0       0      23        0.0%
BITBANK12          100      0       0      45        0.0%
BANK12             100      0       0      22        0.0%
BITBANK11          100      0       0      20        0.0%
BANK11             100      0       0      21        0.0%
BITBANK10          100      0       0      44        0.0%
BANK10             100      0       0      19        0.0%
BITBANK9           100      0       0      43        0.0%
BANK9              100      0       0      18        0.0%
BITBANK8           100      0       0      42        0.0%
BANK8              100      0       0      17        0.0%
BITBANK7           100      0       0      41        0.0%
BANK7              100      0       0      16        0.0%
BITBANK6           100      0       0      40        0.0%
BANK6              100      0       0      15        0.0%
BITBANK5           100      0       0      39        0.0%
BANK5              100      0       0      14        0.0%
BITBANK4           100      0       0      12        0.0%
BANK4              100      0       0      13        0.0%
BITBANK3           100      0       0      10        0.0%
BANK3              100      0       0      11        0.0%
BITBANK2           100      0       0       8        0.0%
BANK2              100      0       0       9        0.0%
BITBANK1           100      0       0       6        0.0%
BANK1              100      0       0       7        0.0%
BITBANK0            A0      0       0       4        0.0%
BANK0               A0      4      1E       5       18.8%
BITCOMRAM           5E      0       0       0        0.0%
COMRAM              5E     4A      59       1       94.7%
BITBANK14           41      0       0      47        0.0%
BANK14              41      0       0      48        0.0%
BITBIGSFRlllh       1F      0       0      35        0.0%
BITBIGSFRhl         1D      0       0      25        0.0%
BITBIGSFRlhlhhh     1A      0       0      28        0.0%
BITBIGSFRhh          D      0       0      24        0.0%
BITBIGSFRllhl        B      0       0      34        0.0%
BITBIGSFRllllh       8      0       0      36        0.0%
BITBIGSFRlhlhl       8      0       0      30        0.0%
BITBIGSFRllhhl       6      0       0      33        0.0%
BITBIGSFRllhhh       4      0       0      32        0.0%
BITBIGSFRlhlhhl      3      0       0      29        0.0%
BITBIGSFRlhhl        3      0       0      27        0.0%
BITBIGSFRlhhh        1      0       0      26        0.0%
BITBIGSFRlhll        1      0       0      31        0.0%
BIGSFR               0      0       0     200        0.0%
BITSFR_2             0      0       0     200        0.0%
SFR_2                0      0       0     200        0.0%
BITSFR_1             0      0       0     200        0.0%
SFR_1                0      0       0     200        0.0%
BITSFR               0      0       0     200        0.0%
SFR                  0      0       0     200        0.0%
STACK                0      0       0       2        0.0%
NULL                 0      0       0       0        0.0%
ABS                  0      0      77      38        0.0%
DATA                 0      0      77       3        0.0%
CODE                 0      0       0       0        0.0%


Microchip Technology PIC18 Macro Assembler V2.45 build 20230818022343 
Symbol Table                                                                                   Tue Feb 04 10:31:52 2025

                      _eusart1TxBufferRemaining 0057                                    ___fldiv@aexp 001D  
                                  ___fldiv@bexp 001C                                    ___fldiv@sign 0015  
                                            l23 1B9C                                              l26 1BC0  
                                            l39 1BD0                                             l202 1BDA  
                                           l205 1BE4                                             l133 1A4E  
                                           l230 1B36                                             l152 1A96  
                                           l270 1BAE                                             l248 1C12  
                                           l273 1AD2                                             l193 1BF8  
                                           l196 1BEE                                             l199 1C02  
                                           l298 1888                                             l922 11BC  
                                           l915 0FC6                                             l932 12EC  
                                           l924 1234                                             l925 1222  
                                           l598 17CA                                             l919 132A  
                                           l883 16C4                                             l885 1524  
                                           l894 156A                                             l896 15E2  
                                           l888 14E8                                             l897 15D0  
                                           l994 1C10                                             l996 1B10  
                                           l998 1B20                                             _PR2 0FCB  
                                           u800 140E                                             u801 140A  
                                           u810 144E                                             u811 144A  
                                           u900 15C8                                             u820 14C4  
                                           u740 1346                                             u901 15C4  
                                           u821 14C0                                             u741 1342  
                                           u910 15DE                                             u830 14E6  
                                           u750 1358                                             u911 15DA  
                                           u831 14E2                                             u751 1354  
                                           u920 15F2                                             u840 1510  
                                           u760 1368                                             u921 15EE  
                                           u841 150C                                             u761 1364  
                                           u930 160C                                             u850 1534  
                                           u770 13AC                                             u931 1608  
                                           u851 1530                                             u771 13A8  
                                           u940 1654                                             u860 154A  
                                           u780 13BE                                             u941 1650  
                                           u861 1546                                             u781 13BA  
                                           u950 1684                                             u870 1568  
                                           u790 13CE                                             u951 1680  
                                           u871 1564                                             u791 13CA  
                                           u960 16B2                                             u880 1588  
                                           u961 16AE                                             u881 1584  
                                           u890 159A                                             u970 0F1C  
                                           u891 1596                                             u971 0F18  
                                           u980 0F2E                                             u981 0F2A  
                                           u990 0F3E                                             u991 0F3A  
                               _TMR2_Initialize 1BC2                                             tosl 0FFD  
                                           wreg 0FE8                                      _TXSTA1bits 0FAC  
                                  ___flmul@aexp 002F                                    ___flmul@bexp 0030  
                                  ___flmul@sign 002A                                    ___flmul@temp 0035  
                                  ___flmul@prod 0031                                    ___fltol@exp1 0040  
                                          l1000 1B34                                            l1002 1BB0  
                                          l1010 1BCA                                            l1004 1B9E  
                                          l1006 1BAC                                            l1008 1BC2  
                                          l2030 193E                                            l2032 1940  
                                          l2026 1A98                                            l2042 19AA  
                                          l2034 1942                                            l2036 1966  
                                          l2028 193A                                            l2038 198A  
                                          l1600 13CE                                            l1530 1BFA  
                                          l1522 1BDC                                            l1610 140E  
                                          l1602 13DE                                            l1524 1BD2  
                                          l1700 16BA                                            l1612 141E  
                                          l1620 143E                                            l1604 13E0  
                                          l2068 19C2                                            l1526 1BF0  
                                          l1550 19FC                                            l1542 19DC  
                                          l1630 147C                                            l1622 144E  
                                          l1614 1426                                            l1606 13E8  
                                          l1710 0F0E                                            l1528 1BE6  
                                          l1560 1A18                                            l1552 1A00  
                                          l1544 19DE                                            l1640 14C4  
                                          l1632 148C                                            l1624 144E  
                                          l1616 142A                                            l1608 13F8  
                                          l1800 11DE                                            l1720 0F4E  
                                          l1712 0F1C                                            l1562 1A24  
                                          l1554 1A04                                            l1546 19EA  
                                          l1650 1512                                            l1642 14D8  
                                          l1634 149C                                            l1570 132C  
                                          l1810 1250                                            l1802 11EC  
                                          l1730 0F7E                                            l1722 0F54  
                                          l1714 0F1E                                            l1900 1A78  
                                          l1564 1A4C                                            l1556 1A08  
                                          l1548 19F8                                            l1660 155A  
                                          l1652 1522                                            l1644 14E6  
                                          l1636 14AC                                            l1628 1462  
                                          l1580 1368                                            l1572 1338  
                                          l1820 12BA                                            l1812 125E  
                                          l1804 121A                                            l1740 0FB6  
                                          l1732 0F80                                            l1724 0F64  
                                          l1716 0F2E                                            l1708 0F02  
                                          l1910 1A92                                            l1902 1A7A  
                                          l1558 1A0C                                            l1670 159A  
                                          l1662 1568                                            l1654 1534  
                                          l1646 14F2                                            l1638 14B4  
                                          l1590 1398                                            l1582 1378  
                                          l1574 1346                                            l1830 1310  
                                          l1822 12D4                                            l1814 1288  
                                          l1750 1006                                            l1742 0FD6  
                                          l1734 0F90                                            l1726 0F6A  
                                          l1718 0F3E                                            l1912 1A94  
                                          l1904 1A8A                                            l1680 160C  
                                          l1672 15C8                                            l1656 154A  
                                          l1664 157A                                            l1648 1510  
                                          l1592 139E                                            l1584 137A  
                                          l1576 1348                                            l1824 12F0  
                                          l1832 1316                                            l1808 1244  
                                          l1816 128C                                            l1760 1056  
                                          l1752 1010                                            l1744 0FE6  
                                          l1736 0FA0                                            l1728 0F70  
                                          l1840 16DC                                            l1906 1A8E  
                                          l1690 1684                                            l1682 1636  
                                          l1666 1588                                            l1658 1550  
                                          l1594 13AC                                            l1578 1358  
                                          l1586 1382                                            l1834 131A  
                                          l1826 1300                                            l1818 12A6  
                                          l1770 1098                                            l1762 1062  
                                          l1754 1026                                            l1738 0FB0  
                                          l1850 172C                                            l1908 1A90  
                                          l1692 16A0                                            l1676 15F2  
                                          l1684 163A                                            l1668 158C  
                                          l1596 13AE                                            l1588 1392  
                                          l1828 130E                                            l1780 10FA  
                                          l1772 10A8                                            l1764 1070  
                                          l1756 1032                                            l1748 0FFA  
                                          l1860 1756                                            l1852 1730  
                                          l1844 16F0                                            l1694 16A4  
                                          l1686 1654                                            l1678 15FE  
                                          l1598 13BE                                            l1790 11A2  
                                          l1782 1116                                            l1774 10C2  
                                          l1766 107C                                            l1758 104A  
                                          l1870 177E                                            l1862 1760  
                                          l1854 173E                                            l1846 171A  
                                          l1838 16C6                                            l1696 16B2  
                                          l1688 166A                                            l1792 11AC  
                                          l1784 1140                                            l1776 10D2  
                                          l1768 108C                                            l1872 178A  
                                          l1864 176A                                            l1848 171C  
                                          l1890 1B94                                            l1882 1B84  
                                          l1698 16B8                                            l1794 11BA  
                                          l1786 1176                                            l1778 10EE  
                                          l1874 179A                                            l1892 1B98  
                                          l1884 1B88                                            l1796 11CC  
                                          l1788 1184                                            l1876 17AA  
                                          l1894 1A50                                            l1886 1B8C  
                                          l1798 11DA                                            l1878 17BA  
                                          l1896 1A50                                            l1888 1B90  
                                          l1968 17CC                                            l1898 1A60  
                                          u1000 0F7E                                            u1001 0F7A  
                                          u1010 0F90                                            u1011 0F8C  
                                          u1100 1230                                            u1020 0FA0  
                                          u1101 122C                                            u1021 0F9C  
                                          u1110 1244                                            u1030 0FD6  
                                          u1111 1240                                            u1031 0FD2  
                                          u1120 125E                                            u1040 0FE6  
                                          u1200 177A                                            u1121 125A  
                                          u1041 0FE2                                            u1201 1776  
                                          u1130 12A6                                            u1050 1160  
                                          u1210 179A                                            u1131 12A2  
                                          u1211 1796                                            u1140 12D4  
                                          u1060 11BA                                            u1220 17AA  
                                          u1141 12D0                                            u1061 11B6  
                                          u1221 17A6                                            u1230 1A60  
                                          u1150 130E                                            u1070 11DA  
                                          u1231 1A5C                                            u1151 130A  
                                          u1071 11D6                                            u1055 1156  
                                          u1240 1A8A                                            u1080 11EC  
                                          u1160 16DC                                            u1241 1A86  
                                          u1081 11E8                                            u1161 16D8  
                                          u1090 121A                                            u1170 1710  
                                          u1091 1216                                            u1180 173E  
                                          u1181 173A                                            _LATA 0F89  
                                          u1190 1752                                            _LATB 0F8A  
                                          u1191 174E                                            u1175 1706  
                                          _LATC 0F8B                                            _TMR2 0FCC  
                                          _WPUB 0F5B                                            _main 193A  
                                 ?_EUSART1_Read 0001                                            fsr2h 0FDA  
                                          indf2 0FDF                                            fsr2l 0FD9  
                                          btemp 005A                                            prodh 0FF4  
                                          prodl 0FF3                                            start 00B4  
                               ___fldiv@new_exp 0016                  fp__EUSART1_DefaultErrorHandler 0000  
                                  ___param_bank 0000                         __end_of_PWM2_Initialize 1BB0  
                 __end_of_OSCILLATOR_Initialize 1BC2                           _eusart1RxStatusBuffer 004B  
                                 ___fltol@sign1 003F                                           ?_main 0001  
                               __end_of___fldiv 16C6                                 __end_of___flmul 132C  
                               __end_of___fltol 17CC                                           _T2CON 0FCA  
                                         i2l170 1B0E                                           i2l181 1B82  
                                         i2l190 1C0E                                           i2l254 0064  
                                         i2l167 1B0C                                           i2l255 00A0  
                                         i2l184 1C14                                           i2l177 1938  
                                         i2l187 1C08                                           i2l259 00A0  
                                         _TRISA 0F92                                           _TRISB 0F93  
                                         _TRISC 0F94                            _EUSART1_Transmit_ISR 1AD4  
                                         pclath 0FFA                                           pclatu 0FFB  
                                ??_EUSART1_Read 0005                                           ttemp5 005B  
                                         ttemp6 005E                                           ttemp7 0062  
                                         status 0FD8                                           wtemp8 005B  
         fp__EUSART1_DefaultFramingErrorHandler 0000      __end_of_EUSART1_DefaultFramingErrorHandler 1C16  
          ??_EUSART1_DefaultFramingErrorHandler 0001             ?_EUSART1_DefaultFramingErrorHandler 0001  
            _EUSART1_DefaultFramingErrorHandler 1C14                                 __initialization 1B38  
                    __end_of_EUSART1_Initialize 1A50                                    __end_of_main 19DC  
                       __end_of_TMR2_Initialize 1BD2                     ?_INTERRUPT_InterruptManager 0001  
                                        ??_main 007C                                   __activetblptr 0002  
                         ?_EUSART1_Transmit_ISR 0001                                          _CCPR2H 0F52  
                                        _CCPR2L 0F51                                          _ANCON0 0F5D  
                                        _ANCON1 0F5C                                          i2l1540 1B80  
                                        i2l1532 1B5E                                          i2l1534 1B6A  
                                        i2l1536 1B6C                                          i2l1538 1B7C  
                                        i2l1566 1C04                                          i2l1568 1C0A  
                                        i2l1940 1AF2                                          i2l1950 18A2  
                                        i2l1942 1B02                                          i2l1934 1AD4  
                                        i2l1960 18FC                                          i2l1952 18AC  
                                        i2l1944 1B06                                          i2l1936 1AE4  
                                        i2l1962 1914                                          i2l1954 18C8  
                                        i2l1946 188A                                          i2l1938 1AF0  
                                        i2l1964 1934                                          i2l1956 18D6  
                                        i2l1948 1894                                          i2l1980 0044  
                                        i2l1958 18E0                                          i2l1982 0072  
                                        i2l1974 001A                                          i2l1984 0080  
                                        i2l1976 0028                                          i2l1978 0036  
                                        _RCREG1 0FAE                                          _RCSTA1 0FAB  
                                        _OSCCON 0FD3                                          _SPBRG1 0FAF  
                                  _trouver_CCPR 17CC                                          _TXREG1 0FAD  
                                        _TXSTA1 0FAC                                       ??___fldiv 000D  
                                     ??___flmul 0026                                       ??___fltol 003B  
                      ?_EUSART1_SetErrorHandler 0005                                ?_PWM2_Initialize 0001  
                                        clear_0 1B3E                                          clear_1 1B4A  
                                        isa$std 0001                ??_EUSART1_SetOverrunErrorHandler 0007  
               ?_EUSART1_SetOverrunErrorHandler 0005                                    __mediumconst 0000  
                                        tblptru 0FF8                                 _eusart1RxBuffer 0060  
                               _eusart1TxBuffer 0068                               _SYSTEM_Initialize 1B84  
                                    __accesstop 0060                         __end_of__initialization 1B50  
                            ?_SYSTEM_Initialize 0001                      __end_of_PWM2_LoadDutyValue 1AD4  
                                 ___rparam_used 0001                                      ___fltol@f1 0037  
                 __end_of_EUSART1_RxDataHandler 1B84                                  __pcstackCOMRAM 0001  
                           ??_SYSTEM_Initialize 0007                           trouver_CCPR@dutyCycle 0041  
                              ?_TMR2_Initialize 0001                            __end_of_EUSART1_Read 1A98  
                        ??_EUSART1_Transmit_ISR 0001                     __end_of_EUSART1_Receive_ISR 193A  
                     __end_of_SYSTEM_Initialize 1B9E                                   _eusart1RxHead 0056  
                                 _eusart1TxHead 0059                                   _eusart1RxTail 0055  
                                    __pbssBANK0 0060                                   _eusart1TxTail 0058  
             _EUSART1_TxDefaultInterruptHandler 0078                 ??_EUSART1_SetRxInterruptHandler 0007  
               __end_of_EUSART1_SetErrorHandler 1C04                                         _CCP2CON 0F50  
        __end_of_EUSART1_SetFramingErrorHandler 1BFA                  _EUSART1_SetFramingErrorHandler 1BF0  
                  ?_EUSART1_DefaultErrorHandler 0001                                         _REFOCON 0F9A  
                                       _OSCCON2 0FD2                                         _OSCTUNE 0F9B  
                                       i2u73_40 1B7C                                         i2u73_41 1B78  
                                       _SPBRGH1 0F7D                                         __Hparam 0000  
                                       __Lparam 0000                                         ___fldiv 132C  
                                       ___flmul 0F02                                         ___fltol 16C6  
                                  __psmallconst 0F00                                         __pcinit 1B38  
                                       __ramtop 0F00                                         __ptext0 193A  
                                       __ptext1 17CC                                         __ptext2 16C6  
                                       __ptext3 0F02                                         __ptext4 132C  
                                       __ptext5 1B84                                         __ptext6 1BC2  
                                       __ptext7 1B9E                                         __ptext8 1B10  
                                       __ptext9 1BB0                           _OSCILLATOR_Initialize 1BB0  
                                     _T2CONbits 0FCA                              _EUSART1_Initialize 19DC  
                      ??_PIN_MANAGER_Initialize 0005                   ??_EUSART1_DefaultErrorHandler 0001  
                          end_of_initialization 1B50                             ?_EUSART1_Initialize 0001  
                                 __Lmediumconst 0000                     _EUSART1_OverrunErrorHandler 0072  
         __end_of_EUSART1_SetRxInterruptHandler 1BE6                   _EUSART1_SetRxInterruptHandler 1BDC  
                                       postinc0 0FEE                            ??_EUSART1_Initialize 0007  
                       fp__EUSART1_Transmit_ISR 0000                                     ___fldiv@grs 0018  
                                   ___fldiv@rem 0011                                     ___flmul@grs 002B  
                                  _EUSART1_Read 1A50                    __end_of_INTERRUPT_Initialize 1C14  
                            _PWM2_LoadDutyValue 1A98                          ?_OSCILLATOR_Initialize 0001  
                           start_initialization 1B38                             ?_PWM2_LoadDutyValue 0049  
 EUSART1_SetRxInterruptHandler@interruptHandler 0005   EUSART1_SetTxInterruptHandler@interruptHandler 0005  
                        fp__EUSART1_Receive_ISR 0000                            ??_PWM2_LoadDutyValue 007A  
                   PWM2_LoadDutyValue@dutyValue 0049                           _EUSART1_RxDataHandler 1B5E  
                                   _CCPTMRSbits 0F99                  ?_EUSART1_SetRxInterruptHandler 0005  
                                _eusart1RxCount 0054                                       ___fldiv@a 0009  
                                     ___fldiv@b 0005                                       ___flmul@a 0022  
                                     ___flmul@b 001E                                     __pbssCOMRAM 004B  
             _EUSART1_RxDefaultInterruptHandler 0076                                   __pcstackBANK0 007A  
               ??_EUSART1_SetTxInterruptHandler 0007                ??_EUSART1_SetFramingErrorHandler 0007  
               ?_EUSART1_SetFramingErrorHandler 0005                                       __pnvBANK0 0070  
                        _PIN_MANAGER_Initialize 1B10                                       __pintcode 0008  
                                      ?___fldiv 0005                                        ?___flmul 001E  
                                      ?___fltol 0037                    ??_INTERRUPT_InterruptManager 0001  
                                   __smallconst 0F00                                        _BAUDCON1 0FA7  
         fp__EUSART1_DefaultOverrunErrorHandler 0000      __end_of_EUSART1_DefaultOverrunErrorHandler 1C0A  
          ??_EUSART1_DefaultOverrunErrorHandler 0001             ?_EUSART1_DefaultOverrunErrorHandler 0001  
            _EUSART1_DefaultOverrunErrorHandler 1C04                            _EUSART1_ErrorHandler 0070  
                       _EUSART1_SetErrorHandler 1BFA                            _INTERRUPT_Initialize 1C10  
                                 ?_trouver_CCPR 0041                               ??_PWM2_Initialize 0005  
       EUSART1_SetErrorHandler@interruptHandler 0005                                        _PIE1bits 0F9D  
                                      i2u130_40 18A2                                        i2u130_41 189E  
                                      i2u132_40 18D6                                        i2u131_48 18B2  
                                      i2u140_40 0072                                        i2u132_41 18D2  
                                      i2u131_49 18C8                                        i2u140_41 006E  
                                      i2u141_40 0080                                        i2u141_41 007C  
                                      i2u134_40 1914                                        i2u133_48 18E6  
                                      i2u134_41 1910                                        i2u133_49 18FC  
                                      i2u142_48 0086                                        i2u142_49 009C  
                                      i2u135_48 191A                                        i2u128_40 1AE4  
                                      i2u136_40 0028                                        i2u135_49 1930  
                                      i2u128_41 1AE0                                        i2u136_41 0024  
                                      i2u129_40 1B02                                        i2u137_40 0036  
                                      i2u129_41 1AFE                                        i2u137_41 0032  
                                      i2u138_40 0044                                        i2u138_41 0040  
                                      i2u139_48 004A                                        i2u139_49 0060  
                                      _PIR1bits 0F9E                          ?_EUSART1_RxDataHandler 0001  
                                      _RCONbits 0FD0                                     _INTCON2bits 0FF1  
                         ?_INTERRUPT_Initialize 0001                                  ??_trouver_CCPR 0045  
                             ??_TMR2_Initialize 0005                           EUSART1_Read@readValue 0005  
         __end_of_EUSART1_SetTxInterruptHandler 1BDC                   _EUSART1_SetTxInterruptHandler 1BD2  
                                      __Hrparam 0000                                        __Lrparam 0000  
                       ??_OSCILLATOR_Initialize 0005                       ??_EUSART1_SetErrorHandler 0007  
           __end_of_EUSART1_DefaultErrorHandler 1C10                     _EUSART1_DefaultErrorHandler 1C0A  
                                      __ptext10 1C10                                        __ptext11 19DC  
                                      __ptext20 1AD4                                        __ptext12 1BD2  
                                      __ptext21 188A                                        __ptext13 1BDC  
                                      __ptext22 1C04                                        __ptext14 1BE6  
                                      __ptext23 1C14                                        __ptext15 1BF0  
                                      __ptext24 1C0A                                        __ptext16 1BFA  
                                      __ptext25 1B5E                                        __ptext17 1A98  
                                      __ptext26 0000                                        __ptext18 1A50  
EUSART1_SetOverrunErrorHandler@interruptHandler 0005                                        isa$xinst 0000  
                                      int$flags 005A              __end_of_INTERRUPT_InterruptManager 00B4  
                    _INTERRUPT_InterruptManager 0008                     _EUSART1_FramingErrorHandler 0074  
                           _EUSART1_Receive_ISR 188A                               _trouver_CCPR$1477 0045  
                                    _INTCONbits 0FF2                          ??_INTERRUPT_Initialize 0005  
                                      intlevel2 0000                            ?_EUSART1_Receive_ISR 0001  
                       ?_PIN_MANAGER_Initialize 0001          __end_of_EUSART1_SetOverrunErrorHandler 1BF0  
                _EUSART1_SetOverrunErrorHandler 1BE6                                      _RCSTA1bits 0FAB  
                  __end_of_EUSART1_Transmit_ISR 1B10  EUSART1_SetFramingErrorHandler@interruptHandler 0005  
                ?_EUSART1_SetTxInterruptHandler 0005                            __end_of_trouver_CCPR 188A  
                            _eusart1RxLastError 0053                                 _PWM2_Initialize 1B9E  
                         ??_EUSART1_Receive_ISR 0001                  __end_of_PIN_MANAGER_Initialize 1B38  
                       ??_EUSART1_RxDataHandler 0001  
